Component: ARM Compiler 6.16 Tool: armlink [5dfeaa00]

==============================================================================

Section Cross References

    main.o(.text) refers to swm341_timr.o(.text) for TIMR_INTClr
    main.o(.text) refers to gt_hal_tick.o(.text) for gt_tick_inc
    main.o(.text) refers to memmovea.o(.text) for __aeabi_memcpy4
    main.o(.text) refers to bsp_lcd_rgb.o(.data._LCD_Buffer) for _LCD_Buffer
    main.o(.text) refers to gt911.o(.text) for GT911_Scan
    main.o(.text) refers to dev_touch.o(.bss.TP_Dev) for TP_Dev
    main.o(.text) refers to system_swm341.o(.text) for SystemInit
    main.o(.text) refers to bsp_uart.o(.text) for bsp_uart0_init
    main.o(.text) refers to bsp_lcd_rgb.o(.text) for bsp_lcd_rgb_init
    main.o(.text) refers to dev_systick.o(.text) for systick_init
    main.o(.text) refers to swm341_sfc.o(.text) for SFC_QuadSwitch
    main.o(.text) refers to bsp_sfc.o(.text) for bsp_sfc_config
    main.o(.text) refers to system_swm341.o(.data..L_MergedGlobals) for CyclesPerUs
    main.o(.text) refers to gt_handler.o(.text) for gt_init
    main.o(.text) refers to memseta.o(.text) for __aeabi_memclr8
    main.o(.text) refers to gt_gui_driver.o(.text) for GT_Font_Init
    main.o(.text) refers to gt_ui.o(.text) for gt_ui_init
    main.o(.text) refers to puts.o(i.puts) for puts
    main.o(.text) refers to swm341_wdt.o(.text) for WDT_Init
    main.o(.ARM.exidx) refers to main.o(.text) for [Anonymous Symbol]
    bsp_lcd_rgb.o(.text) refers to bsp_lcd_rgb.o(.data._LCD_Buffer) for _LCD_Buffer
    bsp_lcd_rgb.o(.text) refers to swm341_lcd.o(.text) for LCD_Init
    bsp_lcd_rgb.o(.text) refers to swm341_port.o(.text) for PORT_Init
    bsp_lcd_rgb.o(.text) refers to swm341_sdram.o(.text) for SDRAM_Init
    bsp_lcd_rgb.o(.text) refers to swm341_gpio.o(.text) for GPIO_Init
    bsp_lcd_rgb.o(.text) refers to bsp_lcd_rgb.o(.bss.POINT_COLOR) for POINT_COLOR
    bsp_lcd_rgb.o(.ARM.exidx) refers to bsp_lcd_rgb.o(.text) for [Anonymous Symbol]
    bsp_led.o(.text) refers to swm341_gpio.o(.text) for GPIO_SetBit
    bsp_led.o(.ARM.exidx) refers to bsp_led.o(.text) for [Anonymous Symbol]
    bsp_sfc.o(.text) refers to swm341_port.o(.text) for PORT_Init
    bsp_sfc.o(.text) refers to swm341_sfc.o(.text) for SFC_Init
    bsp_sfc.o(.text) refers to memmovea.o(.text) for __aeabi_memcpy4
    bsp_sfc.o(.text) refers to bsp_sfc.o(.rodata.str1.1) for .Lstr
    bsp_sfc.o(.text) refers to puts.o(i.puts) for puts
    bsp_sfc.o(.text) refers to swm341_gpio.o(.text) for GPIO_Init
    bsp_sfc.o(.ARM.exidx) refers to bsp_sfc.o(.text) for [Anonymous Symbol]
    bsp_uart.o(.text) refers to swm341_uart.o(.text) for UART_WriteByte
    bsp_uart.o(.text) refers to swm341_port.o(.text) for PORT_Init
    bsp_uart.o(.text) refers to bsp_uart.o(.bss..L_MergedGlobals) for .L_MergedGlobals
    bsp_uart.o(.text) refers to swm341_wdt.o(.text) for WDT_Init
    bsp_uart.o(.ARM.exidx) refers to bsp_uart.o(.text) for [Anonymous Symbol]
    dev_dac.o(.text) refers to swm341_port.o(.text) for PORT_Init
    dev_dac.o(.text) refers to swm341_dac.o(.text) for DAC_Init
    dev_dac.o(.text) refers to swm341_dma.o(.text) for DMA_CH_Init
    dev_dac.o(.text) refers to swm341_timr.o(.text) for TIMR_Stop
    dev_dac.o(.ARM.exidx) refers to dev_dac.o(.text) for [Anonymous Symbol]
    dev_sdio.o(.text) refers to swm341_port.o(.text) for PORT_Init
    dev_sdio.o(.text) refers to swm341_sdio.o(.text) for SDIO_Init
    dev_sdio.o(.ARM.exidx) refers to dev_sdio.o(.text) for [Anonymous Symbol]
    dev_sdram.o(.text) refers to swm341_port.o(.text) for PORT_Init
    dev_sdram.o(.text) refers to swm341_sdram.o(.text) for SDRAM_Init
    dev_sdram.o(.ARM.exidx) refers to dev_sdram.o(.text) for [Anonymous Symbol]
    dev_systick.o(.text) refers to system_swm341.o(.data..L_MergedGlobals) for SystemCoreClock
    dev_systick.o(.text) refers to dev_systick.o(.bss.Systick_Time) for Systick_Time
    dev_systick.o(.ARM.exidx) refers to dev_systick.o(.text) for [Anonymous Symbol]
    dev_touch.o(.text) refers to swm341_exti.o(.text) for EXTI_State
    dev_touch.o(.text) refers to dev_touch.o(.bss.Boot_Video_Flag) for Boot_Video_Flag
    dev_touch.o(.text) refers to swm341_gpio.o(.text) for GPIO_Init
    dev_touch.o(.ARM.exidx) refers to dev_touch.o(.text) for [Anonymous Symbol]
    gt911.o(.text) refers to swm341_i2c.o(.text) for I2C_Start
    gt911.o(.text) refers to dev_systick.o(.text) for swm_delay_ms
    gt911.o(.text) refers to swm341_port.o(.text) for PORT_Init
    gt911.o(.text) refers to swm341_gpio.o(.text) for GPIO_Init
    gt911.o(.text) refers to printfa.o(i.__0printf) for __2printf
    gt911.o(.text) refers to dev_touch.o(.bss.TP_Dev) for TP_Dev
    gt911.o(.ARM.exidx) refers to gt911.o(.text) for [Anonymous Symbol]
    system_swm341.o(.text) refers to system_swm341.o(.data..L_MergedGlobals) for .L_MergedGlobals
    system_swm341.o(.text) refers to swm341_flash.o(.text) for Flash_Param_at_xMHz
    system_swm341.o(.text) refers to swm341_port.o(.text) for PORT_Init
    system_swm341.o(.ARM.exidx) refers to system_swm341.o(.text) for [Anonymous Symbol]
    startup_swm341.o(RESET) refers to startup_swm341.o(STACK) for __initial_sp
    startup_swm341.o(RESET) refers to startup_swm341.o(.text) for Reset_Handler
    startup_swm341.o(RESET) refers to dev_systick.o(.text) for SysTick_Handler
    startup_swm341.o(RESET) refers to bsp_uart.o(.text) for UART3_Handler
    startup_swm341.o(RESET) refers to dev_touch.o(.text) for GPIOD_Handler
    startup_swm341.o(RESET) refers to bsp_lcd_rgb.o(.text) for LCD_Handler
    startup_swm341.o(RESET) refers to main.o(.text) for TIMR4_Handler
    startup_swm341.o(.text) refers to system_swm341.o(.text) for FPU_Enable
    startup_swm341.o(.text) refers to entry.o(.ARM.Collect$$$$00000000) for __main
    swm341_adc.o(.text) refers to swm341_adc.o(.rodata..Lswitch.table.ADC_INTStat) for .Lswitch.table.ADC_INTStat
    swm341_adc.o(.text) refers to swm341_adc.o(.rodata..Lswitch.table.ADC_DataAvailable) for .Lswitch.table.ADC_DataAvailable
    swm341_adc.o(.ARM.exidx) refers to swm341_adc.o(.text) for [Anonymous Symbol]
    swm341_can.o(.text) refers to system_swm341.o(.data..L_MergedGlobals) for SystemCoreClock
    swm341_can.o(.ARM.exidx) refers to swm341_can.o(.text) for [Anonymous Symbol]
    swm341_cordic.o(.ARM.exidx) refers to swm341_cordic.o(.text) for [Anonymous Symbol]
    swm341_crc.o(.ARM.exidx) refers to swm341_crc.o(.text) for [Anonymous Symbol]
    swm341_dac.o(.ARM.exidx) refers to swm341_dac.o(.text) for [Anonymous Symbol]
    swm341_div.o(.ARM.exidx) refers to swm341_div.o(.text) for [Anonymous Symbol]
    swm341_dma.o(.ARM.exidx) refers to swm341_dma.o(.text) for [Anonymous Symbol]
    swm341_dma2d.o(.ARM.exidx) refers to swm341_dma2d.o(.text) for [Anonymous Symbol]
    swm341_exti.o(.ARM.exidx) refers to swm341_exti.o(.text) for [Anonymous Symbol]
    swm341_flash.o(.ARM.exidx) refers to swm341_flash.o(.text) for [Anonymous Symbol]
    swm341_gpio.o(.text) refers to swm341_port.o(.text) for PORT_Init
    swm341_gpio.o(.ARM.exidx) refers to swm341_gpio.o(.text) for [Anonymous Symbol]
    swm341_i2c.o(.text) refers to system_swm341.o(.data..L_MergedGlobals) for SystemCoreClock
    swm341_i2c.o(.ARM.exidx) refers to swm341_i2c.o(.text) for [Anonymous Symbol]
    swm341_iofilt.o(.text) refers to swm341_iofilt.o(.bss.Width) for Width
    swm341_iofilt.o(.ARM.exidx) refers to swm341_iofilt.o(.text) for [Anonymous Symbol]
    swm341_jpeg.o(.text) refers to dfltui.o(.text) for __aeabi_ui2d
    swm341_jpeg.o(.text) refers to dmul.o(.text) for __aeabi_dmul
    swm341_jpeg.o(.text) refers to ceil.o(i.ceil) for ceil
    swm341_jpeg.o(.text) refers to dfixi.o(.text) for __aeabi_d2iz
    swm341_jpeg.o(.text) refers to dflti.o(.text) for __aeabi_i2d
    swm341_jpeg.o(.ARM.exidx) refers to swm341_jpeg.o(.text) for [Anonymous Symbol]
    swm341_lcd.o(.ARM.exidx) refers to swm341_lcd.o(.text) for [Anonymous Symbol]
    swm341_port.o(.ARM.exidx) refers to swm341_port.o(.text) for [Anonymous Symbol]
    swm341_pwm.o(.ARM.exidx) refers to swm341_pwm.o(.text) for [Anonymous Symbol]
    swm341_qei.o(.ARM.exidx) refers to swm341_qei.o(.text) for [Anonymous Symbol]
    swm341_rtc.o(.text) refers to swm341_rtc.o(.rodata..L__const.calcWeekDay.daysOfMonth) for .L__const.calcWeekDay.daysOfMonth
    swm341_rtc.o(.ARM.exidx) refers to swm341_rtc.o(.text) for [Anonymous Symbol]
    swm341_sdio.o(.text) refers to system_swm341.o(.data..L_MergedGlobals) for SystemCoreClock
    swm341_sdio.o(.text) refers to swm341_sdio.o(.rodata.str4.4) for .Lswitch.table.calcSDCLKDiv
    swm341_sdio.o(.text) refers to swm341_sdio.o(.bss.SD_cardInfo) for SD_cardInfo
    swm341_sdio.o(.ARM.exidx) refers to swm341_sdio.o(.text) for [Anonymous Symbol]
    swm341_sdram.o(.text) refers to system_swm341.o(.data..L_MergedGlobals) for CyclesPerUs
    swm341_sdram.o(.ARM.exidx) refers to swm341_sdram.o(.text) for [Anonymous Symbol]
    swm341_sfc.o(.text) refers to system_swm341.o(.data..L_MergedGlobals) for CyclesPerUs
    swm341_sfc.o(.ARM.exidx) refers to swm341_sfc.o(.text) for [Anonymous Symbol]
    swm341_spi.o(.text) refers to system_swm341.o(.data..L_MergedGlobals) for SystemCoreClock
    swm341_spi.o(.ARM.exidx) refers to swm341_spi.o(.text) for [Anonymous Symbol]
    swm341_timr.o(.ARM.exidx) refers to swm341_timr.o(.text) for [Anonymous Symbol]
    swm341_uart.o(.text) refers to system_swm341.o(.data..L_MergedGlobals) for SystemCoreClock
    swm341_uart.o(.ARM.exidx) refers to swm341_uart.o(.text) for [Anonymous Symbol]
    swm341_usbd.o(.text) refers to swm341_usbd.o(.bss..L_MergedGlobals) for .L_MergedGlobals
    swm341_usbd.o(.text) refers to system_swm341.o(.data..L_MergedGlobals) for CyclesPerUs
    swm341_usbd.o(.text) refers to swm341_usbd.o(.data.pUSB_Setup) for pUSB_Setup
    swm341_usbd.o(.ARM.exidx) refers to swm341_usbd.o(.text) for [Anonymous Symbol]
    swm341_usbd.o(.data.pUSB_Setup) refers to swm341_usbd.o(.bss.Setup_Packet) for [Anonymous Symbol]
    swm341_usbh.o(.text) refers to system_swm341.o(.data..L_MergedGlobals) for CyclesPerUs
    swm341_usbh.o(.text) refers to swm341_usbh.o(.bss.Speed) for Speed
    swm341_usbh.o(.text) refers to swm341_usbd.o(.text) for USBD_memcpy
    swm341_usbh.o(.ARM.exidx) refers to swm341_usbh.o(.text) for [Anonymous Symbol]
    swm341_wdt.o(.ARM.exidx) refers to swm341_wdt.o(.text) for [Anonymous Symbol]
    gt_port_disp.o(.text) refers to gt_port_disp.o(.bss.drv) for drv
    gt_port_disp.o(.text) refers to gt_hal_disp.o(.text) for gt_disp_drv_init
    gt_port_disp.o(.text) refers to main.o(.text) for _flush_cb
    gt_port_disp.o(.text) refers to gt_port_disp.o(.bss.ARM.__at_0x80180000) for buf_all
    gt_port_disp.o(.ARM.exidx) refers to gt_port_disp.o(.text) for [Anonymous Symbol]
    gt_port_indev.o(.text) refers to gt_port_indev.o(.bss..L_MergedGlobals) for .L_MergedGlobals
    gt_port_indev.o(.text) refers to gt_hal_indev.o(.text) for gt_indev_drv_init
    gt_port_indev.o(.text) refers to main.o(.text) for read_cb
    gt_port_indev.o(.ARM.exidx) refers to gt_port_indev.o(.text) for [Anonymous Symbol]
    gt_port_src.o(.text) refers to gt_port_src.o(.rodata._src_icon_sys) for _src_icon_sys
    gt_port_src.o(.text) refers to gt_hal_src.o(.text) for gt_src_init
    gt_port_src.o(.ARM.exidx) refers to gt_port_src.o(.text) for [Anonymous Symbol]
    gt_port_vf.o(.text) refers to gt_port_vf.o(.rodata.virt_file_sys) for virt_file_sys
    gt_port_vf.o(.text) refers to gt_hal_vf.o(.text) for gt_vf_init
    gt_port_vf.o(.text) refers to main.o(.text) for spi_wr
    gt_port_vf.o(.ARM.exidx) refers to gt_port_vf.o(.text) for [Anonymous Symbol]
    gt_port_vf.o(.rodata.virt_file_sys) refers to gt_port_vf.o(.rodata.str1.1) for [Anonymous Symbol]
    gt_disp.o(.text) refers to gt_hal_disp.o(.text) for gt_disp_get_default
    gt_disp.o(.text) refers to gt_scr_stack.o(.text) for gt_scr_stack_pop
    gt_disp.o(.text) refers to gt_disp.o(.rodata.str1.1) for .L.str
    gt_disp.o(.text) refers to printfa.o(i.__0printf) for __2printf
    gt_disp.o(.text) refers to gt_anim.o(.text) for gt_anim_init
    gt_disp.o(.text) refers to gt_mem.o(.text) for _mem_realloc
    gt_disp.o(.text) refers to gt_obj_class.o(.text) for _gt_obj_class_destroy
    gt_disp.o(.text) refers to gt_style.o(.text) for gt_obj_set_x
    gt_disp.o(.text) refers to gt_disp.o(.rodata.cst32) for .L__const.gt_disp_stack_push_scr_only_st.ret
    gt_disp.o(.text) refers to gt_obj.o(.text) for gt_obj_is_child
    gt_disp.o(.text) refers to gt_obj_pos.o(.text) for gt_obj_check_scr
    gt_disp.o(.text) refers to gt_math.o(.text) for gt_abs
    gt_disp.o(.text) refers to gt_area.o(.text) for gt_area_is_intersect_screen
    gt_disp.o(.text) refers to gt_color.o(.text) for gt_color_fill
    gt_disp.o(.text) refers to gt_indev.o(.text) for gt_indev_set_disabled
    gt_disp.o(.ARM.exidx) refers to gt_disp.o(.text) for [Anonymous Symbol]
    gt_draw.o(.text) refers to gt_draw_blend.o(.text) for gt_draw_blend
    gt_draw.o(.text) refers to gt_area.o(.text) for gt_area_is_intersect_screen
    gt_draw.o(.text) refers to gt_draw.o(.rodata.str1.1) for .L.str
    gt_draw.o(.text) refers to gt_mem.o(.text) for _mem_malloc
    gt_draw.o(.text) refers to gt_obj_pos.o(.text) for gt_area_copy
    gt_draw.o(.text) refers to printfa.o(i.__0printf) for __2printf
    gt_draw.o(.text) refers to gt_draw.o(.rodata.small_radius_make) for small_radius_make
    gt_draw.o(.text) refers to gt_font.o(.text) for _gt_font_get_type_group_offset_y
    gt_draw.o(.text) refers to gt_symbol.o(.text) for gt_symbol_is_valid_range
    gt_draw.o(.text) refers to gt_draw.o(.rodata._utf8_dots) for _utf8_dots
    gt_draw.o(.text) refers to gt_draw.o(.rodata._utf8_full_stops) for _utf8_full_stops
    gt_draw.o(.text) refers to memseta.o(.text) for __aeabi_memclr4
    gt_draw.o(.text) refers to gt_img_decoder.o(.text) for gt_img_decoder_open
    gt_draw.o(.text) refers to gt_hal_disp.o(.text) for _gt_disp_update_max_area
    gt_draw.o(.text) refers to gt_fs.o(.text) for gt_fs_read_img_offset
    gt_draw.o(.text) refers to gt_graph_base.o(.text) for gt_graph_init_rect_attr
    gt_draw.o(.text) refers to gt_color.o(.text) for gt_color_focus
    gt_draw.o(.ARM.exidx) refers to gt_draw.o(.text) for [Anonymous Symbol]
    gt_draw.o(.rodata.small_radius_make) refers to gt_draw.o(.rodata.r_1) for [Anonymous Symbol]
    gt_draw.o(.rodata.small_radius_make) refers to gt_draw.o(.rodata.r_2) for [Anonymous Symbol]
    gt_draw.o(.rodata.small_radius_make) refers to gt_draw.o(.rodata.r_3) for [Anonymous Symbol]
    gt_draw.o(.rodata.small_radius_make) refers to gt_draw.o(.rodata.r_4) for [Anonymous Symbol]
    gt_draw.o(.rodata.small_radius_make) refers to gt_draw.o(.rodata.r_5) for [Anonymous Symbol]
    gt_draw.o(.rodata.small_radius_make) refers to gt_draw.o(.rodata.r_6) for [Anonymous Symbol]
    gt_draw.o(.rodata.small_radius_make) refers to gt_draw.o(.rodata.r_7) for [Anonymous Symbol]
    gt_draw.o(.rodata.small_radius_make) refers to gt_draw.o(.rodata.r_8) for [Anonymous Symbol]
    gt_draw.o(.rodata.small_radius_make) refers to gt_draw.o(.rodata.r_9) for [Anonymous Symbol]
    gt_draw.o(.rodata.small_radius_make) refers to gt_draw.o(.rodata.r_10) for [Anonymous Symbol]
    gt_draw.o(.rodata.small_radius_make) refers to gt_draw.o(.rodata.r_11) for [Anonymous Symbol]
    gt_draw.o(.rodata.small_radius_make) refers to gt_draw.o(.rodata.r_12) for [Anonymous Symbol]
    gt_draw.o(.rodata.small_radius_make) refers to gt_draw.o(.rodata.r_13) for [Anonymous Symbol]
    gt_draw.o(.rodata.small_radius_make) refers to gt_draw.o(.rodata.r_14) for [Anonymous Symbol]
    gt_draw.o(.rodata.small_radius_make) refers to gt_draw.o(.rodata.r_15) for [Anonymous Symbol]
    gt_draw.o(.rodata.small_radius_make) refers to gt_draw.o(.rodata.r_16) for [Anonymous Symbol]
    gt_event.o(.text) refers to gt_event.o(.rodata.str1.1) for .L.str
    gt_event.o(.text) refers to gt_mem.o(.text) for _mem_realloc
    gt_event.o(.text) refers to printfa.o(i.__0printf) for __2printf
    gt_event.o(.text) refers to gt_gc.o(.data._gt_global_call) for _gt_global_call
    gt_event.o(.text) refers to gt_obj.o(.text) for gt_obj_get_parent
    gt_event.o(.text) refers to gt_style.o(.text) for gt_obj_is_bubble_notify
    gt_event.o(.ARM.exidx) refers to gt_event.o(.text) for [Anonymous Symbol]
    gt_fs.o(.text) refers to strlen.o(.text) for strlen
    gt_fs.o(.text) refers to gt_fs.o(.rodata.str1.1) for .L.str
    gt_fs.o(.text) refers to tolower.o(.text) for tolower
    gt_fs.o(.text) refers to gt_fs.o(.rodata.cst4) for _drive_label
    gt_fs.o(.text) refers to gt_hal_vf.o(.text) for gt_vf_get_drv
    gt_fs.o(.text) refers to gt_hal_src.o(.text) for gt_src_get_drv
    gt_fs.o(.text) refers to printfa.o(i.__0printf) for __2printf
    gt_fs.o(.ARM.exidx) refers to gt_fs.o(.text) for [Anonymous Symbol]
    gt_graph_base.o(.text) refers to gt_mem.o(.text) for gt_memset
    gt_graph_base.o(.ARM.exidx) refers to gt_graph_base.o(.text) for [Anonymous Symbol]
    gt_handler.o(.text) refers to gt_handler.o(.bss._gt_init_done_flag) for _gt_init_done_flag
    gt_handler.o(.text) refers to gt_mem.o(.text) for gt_mem_init
    gt_handler.o(.text) refers to gt_timer.o(.text) for _gt_timer_core_init
    gt_handler.o(.text) refers to gt_anim.o(.text) for _gt_anim_core_init
    gt_handler.o(.text) refers to gt_img_decoder.o(.text) for _gt_img_decoder_init
    gt_handler.o(.text) refers to gt_extra.o(.text) for _gt_extra_init
    gt_handler.o(.text) refers to gt_port_disp.o(.text) for gt_port_disp_init
    gt_handler.o(.text) refers to gt_port_indev.o(.text) for gt_port_indev_init
    gt_handler.o(.text) refers to gt_port_vf.o(.text) for gt_port_vf_init
    gt_handler.o(.text) refers to gt_port_src.o(.text) for gt_port_src_init
    gt_handler.o(.ARM.exidx) refers to gt_handler.o(.text) for [Anonymous Symbol]
    gt_img_decoder.o(.text) refers to gt_gc.o(.data._gt_global_call) for _gt_global_call
    gt_img_decoder.o(.text) refers to gt_img_decoder.o(.rodata.str1.1) for .L.str
    gt_img_decoder.o(.text) refers to gt_mem.o(.text) for _mem_malloc
    gt_img_decoder.o(.text) refers to gt_fs.o(.text) for gt_fs_open
    gt_img_decoder.o(.text) refers to printfa.o(i.__0printf) for __2printf
    gt_img_decoder.o(.ARM.exidx) refers to gt_img_decoder.o(.text) for [Anonymous Symbol]
    gt_indev.o(.text) refers to gt_indev.o(.bss..L_MergedGlobals) for .L_MergedGlobals
    gt_indev.o(.text) refers to gt_hal_indev.o(.text) for gt_indev_get_dev_count
    gt_indev.o(.text) refers to gt_indev.o(.rodata.str1.1) for .L.str
    gt_indev.o(.text) refers to printfa.o(i.__0printf) for __2printf
    gt_indev.o(.text) refers to gt_disp.o(.text) for gt_disp_get_scr
    gt_indev.o(.text) refers to gt_obj_pos.o(.text) for gt_find_clicked_obj_by_point
    gt_indev.o(.text) refers to gt_obj_scroll.o(.text) for _gt_obj_set_process_point
    gt_indev.o(.text) refers to gt_hal_tick.o(.text) for gt_tick_get
    gt_indev.o(.text) refers to gt_event.o(.text) for gt_event_send
    gt_indev.o(.text) refers to gt_indev.o(.rodata.cst16) for .L__const._gt_indev_handler_keypad.data_indev
    gt_indev.o(.text) refers to gt_indev.o(.data._gt_indev_handler_keypad.last_key) for _gt_indev_handler_keypad.last_key
    gt_indev.o(.text) refers to gt_style.o(.text) for gt_obj_is_untouchability
    gt_indev.o(.text) refers to gt_anim.o(.text) for gt_anim_init
    gt_indev.o(.text) refers to gt_math.o(.text) for gt_abs
    gt_indev.o(.text) refers to gt_hal_disp.o(.text) for _gt_disp_hided_layer_top_widgets
    gt_indev.o(.text) refers to gt_dialog.o(.text) for gt_dialog_has_showing
    gt_indev.o(.ARM.exidx) refers to gt_indev.o(.text) for [Anonymous Symbol]
    gt_layout.o(.text) refers to gt_layout.o(.rodata.str1.1) for .L.str.2
    gt_layout.o(.text) refers to printfa.o(i.__0printf) for __2printf
    gt_layout.o(.text) refers to gt_style.o(.text) for gt_obj_get_w
    gt_layout.o(.ARM.exidx) refers to gt_layout.o(.text) for [Anonymous Symbol]
    gt_mem.o(.text) refers to gt_mem.o(.bss._mem_pool_int) for _mem_pool_int
    gt_mem.o(.text) refers to gt_tlsf.o(.text) for gt_tlsf_create_with_pool
    gt_mem.o(.text) refers to gt_mem.o(.bss..L_MergedGlobals) for .L_MergedGlobals
    gt_mem.o(.text) refers to memmovea.o(.text) for __aeabi_memcpy
    gt_mem.o(.text) refers to memseta.o(.text) for __aeabi_memclr
    gt_mem.o(.text) refers to memcmp.o(.text) for memcmp
    gt_mem.o(.text) refers to ffltui.o(.text) for __aeabi_ui2f
    gt_mem.o(.text) refers to fdiv.o(.text) for __aeabi_fdiv
    gt_mem.o(.text) refers to fmul.o(.text) for __aeabi_fmul
    gt_mem.o(.text) refers to f2d.o(.text) for __aeabi_f2d
    gt_mem.o(.text) refers to printfa.o(i.__0printf) for __2printf
    gt_mem.o(.ARM.exidx) refers to gt_mem.o(.text) for [Anonymous Symbol]
    gt_obj_pos.o(.text) refers to gt_style.o(.text) for gt_obj_get_visible
    gt_obj_pos.o(.text) refers to gt_obj_pos.o(.rodata.cst8) for .L__const._gt_obj_foreach_clicked.obj_clicked
    gt_obj_pos.o(.text) refers to gt_disp.o(.text) for gt_disp_get_scr
    gt_obj_pos.o(.text) refers to gt_obj_class.o(.text) for gt_obj_class_get_type
    gt_obj_pos.o(.ARM.exidx) refers to gt_obj_pos.o(.text) for [Anonymous Symbol]
    gt_obj_scroll.o(.text) refers to gt_event.o(.text) for gt_event_send
    gt_obj_scroll.o(.text) refers to gt_anim.o(.text) for gt_anim_init
    gt_obj_scroll.o(.text) refers to gt_hal_disp.o(.text) for gt_disp_get_res_hor
    gt_obj_scroll.o(.text) refers to gt_obj_scroll.o(.rodata.str1.1) for .L.str.2
    gt_obj_scroll.o(.text) refers to printfa.o(i.__0printf) for __2printf
    gt_obj_scroll.o(.ARM.exidx) refers to gt_obj_scroll.o(.text) for [Anonymous Symbol]
    gt_refr.o(.text) refers to gt_hal_disp.o(.text) for gt_disp_get_default
    gt_refr.o(.text) refers to gt_disp.o(.text) for gt_disp_ref_area
    gt_refr.o(.text) refers to gt_refr.o(.rodata.str1.1) for .L.str
    gt_refr.o(.text) refers to printfa.o(i.__0printf) for __2printf
    gt_refr.o(.ARM.exidx) refers to gt_refr.o(.text) for [Anonymous Symbol]
    gt_scr_stack.o(.text) refers to gt_gc.o(.text) for _gt_gc_get_scr_info
    gt_scr_stack.o(.text) refers to gt_stack.o(.text) for gt_stack_destroy
    gt_scr_stack.o(.text) refers to gt_scr_stack.o(.rodata.str1.1) for .L.str
    gt_scr_stack.o(.text) refers to printfa.o(i.__0printf) for __2printf
    gt_scr_stack.o(.text) refers to gt_obj_class.o(.text) for _gt_obj_class_destroy
    gt_scr_stack.o(.ARM.exidx) refers to gt_scr_stack.o(.text) for [Anonymous Symbol]
    gt_style.o(.text) refers to gt_style.o(.rodata.str1.1) for .L.str
    gt_style.o(.text) refers to printfa.o(i.__0printf) for __2printf
    gt_style.o(.text) refers to gt_hal_disp.o(.text) for _gt_disp_refr_append_area
    gt_style.o(.text) refers to gt_event.o(.text) for gt_event_send
    gt_style.o(.text) refers to gt_disp.o(.text) for gt_disp_invalid_area
    gt_style.o(.text) refers to gt_layout.o(.text) for gt_layout_row_grow
    gt_style.o(.ARM.exidx) refers to gt_style.o(.text) for [Anonymous Symbol]
    gt_timer.o(.text) refers to gt_gc.o(.data._gt_global_call) for _gt_global_call
    gt_timer.o(.text) refers to gt_timer.o(.rodata.str1.1) for .L.str.4
    gt_timer.o(.text) refers to gt_mem.o(.text) for _mem_malloc
    gt_timer.o(.text) refers to gt_hal_tick.o(.text) for gt_tick_get
    gt_timer.o(.text) refers to gt_timer.o(.bss._gt_timer_task_ready_flag) for _gt_timer_task_ready_flag
    gt_timer.o(.text) refers to printfa.o(i.__0printf) for __2printf
    gt_timer.o(.ARM.exidx) refers to gt_timer.o(.text) for [Anonymous Symbol]
    gt_extra.o(.text) refers to gt_png.o(.text) for gt_png_init
    gt_extra.o(.text) refers to gt_sjpg.o(.text) for gt_sjpg_init
    gt_extra.o(.ARM.exidx) refers to gt_extra.o(.text) for [Anonymous Symbol]
    gt_draw_blend.o(.text) refers to gt_area.o(.text) for gt_area_cover_screen
    gt_draw_blend.o(.text) refers to gt_draw_blend_with_rgb565.o(.text) for gt_draw_blend_with_rgb565_opacity
    gt_draw_blend.o(.text) refers to gt_math.o(.text) for gt_per_255
    gt_draw_blend.o(.ARM.exidx) refers to gt_draw_blend.o(.text) for [Anonymous Symbol]
    gt_draw_blend_with_argb888.o(.text) refers to gt_math.o(.text) for gt_per_255
    gt_draw_blend_with_argb888.o(.ARM.exidx) refers to gt_draw_blend_with_argb888.o(.text) for [Anonymous Symbol]
    gt_draw_blend_with_rgb565.o(.text) refers to gt_math.o(.text) for gt_per_255
    gt_draw_blend_with_rgb565.o(.ARM.exidx) refers to gt_draw_blend_with_rgb565.o(.text) for [Anonymous Symbol]
    gt_draw_blend_with_rgb888.o(.text) refers to gt_math.o(.text) for gt_per_255
    gt_draw_blend_with_rgb888.o(.ARM.exidx) refers to gt_draw_blend_with_rgb888.o(.text) for [Anonymous Symbol]
    gifdec.o(.text) refers to gifdec.o(.rodata.str1.1) for .L.str
    gifdec.o(.text) refers to gt_mem.o(.text) for _mem_malloc
    gifdec.o(.text) refers to gt_fs.o(.text) for gt_fs_open
    gifdec.o(.text) refers to memcmp.o(.text) for memcmp
    gifdec.o(.text) refers to memseta.o(.text) for __aeabi_memset
    gifdec.o(.ARM.exidx) refers to gifdec.o(.text) for [Anonymous Symbol]
    gt_sjpg.o(.text) refers to gt_img_decoder.o(.text) for gt_img_decoder_create
    gt_sjpg.o(.text) refers to gt_fs.o(.text) for gt_fs_open
    gt_sjpg.o(.text) refers to gt_mem.o(.text) for gt_memcmp
    gt_sjpg.o(.text) refers to gt_sjpg.o(.rodata.str1.1) for .L.str.3
    gt_sjpg.o(.text) refers to memseta.o(.text) for __aeabi_memclr4
    gt_sjpg.o(.text) refers to tjpgd.o(.text) for jd_prepare
    gt_sjpg.o(.ARM.exidx) refers to gt_sjpg.o(.text) for [Anonymous Symbol]
    tjpgd.o(.text) refers to memseta.o(.text) for __aeabi_memclr4
    tjpgd.o(.text) refers to tjpgd.o(.rodata.Ipsf) for Ipsf
    tjpgd.o(.text) refers to tjpgd.o(.rodata.Zig) for Zig
    tjpgd.o(.text) refers to tjpgd.o(.rodata.Clip8) for Clip8
    tjpgd.o(.ARM.exidx) refers to tjpgd.o(.text) for [Anonymous Symbol]
    gt_png.o(.text) refers to gt_img_decoder.o(.text) for gt_img_decoder_create
    gt_png.o(.text) refers to strlen.o(.text) for strlen
    gt_png.o(.text) refers to gt_png.o(.rodata.str1.1) for .L.str
    gt_png.o(.text) refers to strcmp.o(.text) for strcmp
    gt_png.o(.text) refers to gt_fs.o(.text) for gt_fs_open
    gt_png.o(.text) refers to gt_mem.o(.text) for gt_memcmp
    gt_png.o(.text) refers to lodepng.o(.text) for lodepng_load_file
    gt_png.o(.text) refers to printfa.o(i.__0printf) for __2printf
    gt_png.o(.ARM.exidx) refers to gt_png.o(.text) for [Anonymous Symbol]
    lodepng.o(.text) refers to gt_fs.o(.text) for gt_fs_open
    lodepng.o(.text) refers to lodepng.o(.rodata.str1.1) for .L.str.113
    lodepng.o(.text) refers to gt_mem.o(.text) for _mem_malloc
    lodepng.o(.text) refers to lodepng.o(.rodata.CLCL_ORDER) for CLCL_ORDER
    lodepng.o(.text) refers to memmovea.o(.text) for __aeabi_memcpy
    lodepng.o(.text) refers to lodepng.o(.rodata.LENGTHBASE) for LENGTHBASE
    lodepng.o(.text) refers to lodepng.o(.rodata.LENGTHEXTRA) for LENGTHEXTRA
    lodepng.o(.text) refers to lodepng.o(.rodata.DISTANCEBASE) for DISTANCEBASE
    lodepng.o(.text) refers to lodepng.o(.rodata.DISTANCEEXTRA) for DISTANCEEXTRA
    lodepng.o(.text) refers to memseta.o(.text) for __aeabi_memclr
    lodepng.o(.text) refers to lodepng.o(.rodata.lodepng_crc32_table) for lodepng_crc32_table
    lodepng.o(.text) refers to lodepng.o(.rodata.cst32) for .Lswitch.table.lodepng_decode.127
    lodepng.o(.text) refers to lodepng.o(.rodata.ADAM7_IY) for ADAM7_IY
    lodepng.o(.text) refers to lodepng.o(.rodata.ADAM7_DY) for ADAM7_DY
    lodepng.o(.text) refers to lodepng.o(.rodata.ADAM7_IX) for ADAM7_IX
    lodepng.o(.text) refers to lodepng.o(.rodata.ADAM7_DX) for ADAM7_DX
    lodepng.o(.text) refers to lodepng.o(.rodata..Lswitch.table.lodepng_error_text) for .Lswitch.table.lodepng_error_text
    lodepng.o(.ARM.exidx) refers to lodepng.o(.text) for [Anonymous Symbol]
    lodepng.o(.data.LODEPNG_VERSION_STRING) refers to lodepng.o(.rodata.str1.1) for [Anonymous Symbol]
    lodepng.o(.rodata..Lswitch.table.lodepng_error_text) refers to lodepng.o(.rodata.str1.1) for [Anonymous Symbol]
    gt_font.o(.text) refers to gt_font.o(.bss._gt_project_encoding) for _gt_project_encoding
    gt_font.o(.text) refers to strlen.o(.text) for strlen
    gt_font.o(.text) refers to gt_gui_driver.o(.text) for GT_Set_Chinese_Charset_Type
    gt_font.o(.text) refers to gt_font.o(.rodata._ascii_16) for _ascii_16
    gt_font.o(.text) refers to gt_mem.o(.text) for gt_memcpy
    gt_font.o(.text) refers to gt_symbol.o(.text) for gt_symbol_is_valid_range
    gt_font.o(.text) refers to gt_font.o(.rodata._latin_16x16_width) for _latin_16x16_width
    gt_font.o(.text) refers to gt_font.o(.rodata.str1.1) for .L.str
    gt_font.o(.text) refers to printfa.o(i.__0printf) for __2printf
    gt_font.o(.ARM.exidx) refers to gt_font.o(.text) for [Anonymous Symbol]
    gt_symbol.o(.text) refers to gt_font.o(.text) for gt_unicode_to_utf8
    gt_symbol.o(.text) refers to gt_symbol.o(.rodata.symbols_24x24) for symbols_24x24
    gt_symbol.o(.text) refers to gt_symbol.o(.rodata.symbols_16x16) for symbols_16x16
    gt_symbol.o(.text) refers to gt_mem.o(.text) for gt_memcmp
    gt_symbol.o(.ARM.exidx) refers to gt_symbol.o(.text) for [Anonymous Symbol]
    gt_symbol.o(.rodata.symbols_16x16) refers to gt_symbol.o(.rodata.str1.1) for [Anonymous Symbol]
    gt_symbol.o(.rodata.symbols_16x16) refers to gt_symbol.o(.rodata.symbol_space_16x16) for [Anonymous Symbol]
    gt_symbol.o(.rodata.symbols_16x16) refers to gt_symbol.o(.rodata.symbol_16x16_new_line) for [Anonymous Symbol]
    gt_symbol.o(.rodata.symbols_16x16) refers to gt_symbol.o(.rodata.symbol_16x16_backspace) for [Anonymous Symbol]
    gt_symbol.o(.rodata.symbols_16x16) refers to gt_symbol.o(.rodata.symbol_en_16x16) for [Anonymous Symbol]
    gt_symbol.o(.rodata.symbols_16x16) refers to gt_symbol.o(.rodata.symbol_ch_16x16) for [Anonymous Symbol]
    gt_symbol.o(.rodata.symbols_16x16) refers to gt_symbol.o(.rodata.symbol_well_number_16x16) for [Anonymous Symbol]
    gt_symbol.o(.rodata.symbols_16x16) refers to gt_symbol.o(.rodata.symbol_lower_case_16x16) for [Anonymous Symbol]
    gt_symbol.o(.rodata.symbols_16x16) refers to gt_symbol.o(.rodata.symbol_upper_case_16x16) for [Anonymous Symbol]
    gt_symbol.o(.rodata.symbols_16x16) refers to gt_symbol.o(.rodata.symbol_16x16_right) for [Anonymous Symbol]
    gt_symbol.o(.rodata.symbols_16x16) refers to gt_symbol.o(.rodata.symbol_16x16_left) for [Anonymous Symbol]
    gt_symbol.o(.rodata.symbols_16x16) refers to gt_symbol.o(.rodata.symbol_16x16_keyboard) for [Anonymous Symbol]
    gt_symbol.o(.rodata.symbols_16x16) refers to gt_symbol.o(.rodata.symbol_16x16_up) for [Anonymous Symbol]
    gt_symbol.o(.rodata.symbols_16x16) refers to gt_symbol.o(.rodata.symbol_16x16_down) for [Anonymous Symbol]
    gt_symbol.o(.rodata.symbols_16x16) refers to gt_symbol.o(.rodata.symbol_16x16_save) for [Anonymous Symbol]
    gt_symbol.o(.rodata.symbols_16x16) refers to gt_symbol.o(.rodata.symbol_16x16_ok) for [Anonymous Symbol]
    gt_symbol.o(.rodata.symbols_16x16) refers to gt_symbol.o(.rodata.symbol_16x16_close) for [Anonymous Symbol]
    gt_symbol.o(.rodata.symbols_16x16) refers to gt_symbol.o(.rodata.voice_play_16x16_left_1) for [Anonymous Symbol]
    gt_symbol.o(.rodata.symbols_16x16) refers to gt_symbol.o(.rodata.voice_play_16x16_left_2) for [Anonymous Symbol]
    gt_symbol.o(.rodata.symbols_16x16) refers to gt_symbol.o(.rodata.voice_play_16x16_left_3) for [Anonymous Symbol]
    gt_symbol.o(.rodata.symbols_16x16) refers to gt_symbol.o(.rodata.voice_play_16x16_right_1) for [Anonymous Symbol]
    gt_symbol.o(.rodata.symbols_16x16) refers to gt_symbol.o(.rodata.voice_play_16x16_right_2) for [Anonymous Symbol]
    gt_symbol.o(.rodata.symbols_16x16) refers to gt_symbol.o(.rodata.voice_play_16x16_right_3) for [Anonymous Symbol]
    gt_symbol.o(.rodata.symbols_24x24) refers to gt_symbol.o(.rodata.str1.1) for [Anonymous Symbol]
    gt_symbol.o(.rodata.symbols_24x24) refers to gt_symbol.o(.rodata.symbol_space_24x24) for [Anonymous Symbol]
    gt_symbol.o(.rodata.symbols_24x24) refers to gt_symbol.o(.rodata.symbol_new_line_24x24) for [Anonymous Symbol]
    gt_symbol.o(.rodata.symbols_24x24) refers to gt_symbol.o(.rodata.symbol_backspace_24x24) for [Anonymous Symbol]
    gt_symbol.o(.rodata.symbols_24x24) refers to gt_symbol.o(.rodata.symbol_en_24x24) for [Anonymous Symbol]
    gt_symbol.o(.rodata.symbols_24x24) refers to gt_symbol.o(.rodata.symbol_ch_24x24) for [Anonymous Symbol]
    gt_symbol.o(.rodata.symbols_24x24) refers to gt_symbol.o(.rodata.symbol_well_number_24x24) for [Anonymous Symbol]
    gt_symbol.o(.rodata.symbols_24x24) refers to gt_symbol.o(.rodata.symbol_lower_case_24x24) for [Anonymous Symbol]
    gt_symbol.o(.rodata.symbols_24x24) refers to gt_symbol.o(.rodata.symbol_upper_case_24x24) for [Anonymous Symbol]
    gt_symbol.o(.rodata.symbols_24x24) refers to gt_symbol.o(.rodata.symbol_right_24x24) for [Anonymous Symbol]
    gt_symbol.o(.rodata.symbols_24x24) refers to gt_symbol.o(.rodata.symbol_left_24x24) for [Anonymous Symbol]
    gt_symbol.o(.rodata.symbols_24x24) refers to gt_symbol.o(.rodata.symbol_keyboard_24x24) for [Anonymous Symbol]
    gt_symbol.o(.rodata.symbols_24x24) refers to gt_symbol.o(.rodata.symbol_ok_24x24) for [Anonymous Symbol]
    gt_symbol.o(.rodata.symbols_24x24) refers to gt_symbol.o(.rodata.symbol_24x24_close) for [Anonymous Symbol]
    gt_symbol.o(.rodata.symbols_24x24) refers to gt_symbol.o(.rodata.voice_play_24x24_left_1) for [Anonymous Symbol]
    gt_symbol.o(.rodata.symbols_24x24) refers to gt_symbol.o(.rodata.voice_play_24x24_left_2) for [Anonymous Symbol]
    gt_symbol.o(.rodata.symbols_24x24) refers to gt_symbol.o(.rodata.voice_play_24x24_left_3) for [Anonymous Symbol]
    gt_symbol.o(.rodata.symbols_24x24) refers to gt_symbol.o(.rodata.voice_play_24x24_right_1) for [Anonymous Symbol]
    gt_symbol.o(.rodata.symbols_24x24) refers to gt_symbol.o(.rodata.voice_play_24x24_right_2) for [Anonymous Symbol]
    gt_symbol.o(.rodata.symbols_24x24) refers to gt_symbol.o(.rodata.voice_play_24x24_right_3) for [Anonymous Symbol]
    gt_hal_disp.o(.text) refers to gt_gc.o(.text) for _gt_gc_get_disp
    gt_hal_disp.o(.text) refers to gt_timer.o(.text) for _gt_timer_create
    gt_hal_disp.o(.text) refers to gt_mem.o(.text) for _mem_malloc
    gt_hal_disp.o(.text) refers to gt_hal_disp.o(.bss.graph_buf_all) for graph_buf_all
    gt_hal_disp.o(.text) refers to gt_hal_disp.o(.rodata.gt_layer_top_class) for gt_layer_top_class
    gt_hal_disp.o(.text) refers to gt_obj_class.o(.text) for gt_obj_class_create
    gt_hal_disp.o(.text) refers to gt_obj.o(.text) for gt_screen_set_bgcolor
    gt_hal_disp.o(.text) refers to gt_style.o(.text) for gt_obj_set_virtual
    gt_hal_disp.o(.text) refers to gt_hal_disp.o(.rodata.str1.1) for .L.str.8
    gt_hal_disp.o(.text) refers to printfa.o(i.__0printf) for __2printf
    gt_hal_disp.o(.text) refers to gt_refr.o(.text) for gt_refr_timer
    gt_hal_disp.o(.text) refers to gt_area.o(.text) for gt_area_is_on
    gt_hal_disp.o(.text) refers to gt_obj_pos.o(.text) for gt_area_copy
    gt_hal_disp.o(.text) refers to gt_event.o(.text) for gt_event_send
    gt_hal_disp.o(.ARM.exidx) refers to gt_hal_disp.o(.text) for [Anonymous Symbol]
    gt_hal_fs.o(.text) refers to gt_mem.o(.text) for _mem_malloc
    gt_hal_fs.o(.text) refers to gt_hal_fs.o(.rodata.str1.1) for .L.str.3
    gt_hal_fs.o(.text) refers to printfa.o(i.__0printf) for __2printf
    gt_hal_fs.o(.ARM.exidx) refers to gt_hal_fs.o(.text) for [Anonymous Symbol]
    gt_hal_indev.o(.text) refers to gt_mem.o(.text) for gt_memset
    gt_hal_indev.o(.text) refers to gt_hal_indev.o(.bss..L_MergedGlobals) for .L_MergedGlobals
    gt_hal_indev.o(.text) refers to gt_indev.o(.text) for gt_indev_handler
    gt_hal_indev.o(.text) refers to gt_timer.o(.text) for _gt_timer_create
    gt_hal_indev.o(.text) refers to gt_hal_indev.o(.bss.indev) for indev
    gt_hal_indev.o(.ARM.exidx) refers to gt_hal_indev.o(.text) for [Anonymous Symbol]
    gt_hal_src.o(.text) refers to gt_hal_src.o(.bss._self) for _self
    gt_hal_src.o(.text) refers to gt_hal_src.o(.rodata.str1.1) for .L.str
    gt_hal_src.o(.text) refers to gt_mem.o(.text) for _mem_malloc
    gt_hal_src.o(.text) refers to strcmp.o(.text) for strcmp
    gt_hal_src.o(.text) refers to gt_hal_fs.o(.text) for _gt_hal_fp_init
    gt_hal_src.o(.text) refers to printfa.o(i.__0printf) for __2printf
    gt_hal_src.o(.ARM.exidx) refers to gt_hal_src.o(.text) for [Anonymous Symbol]
    gt_hal_tick.o(.text) refers to gt_hal_tick.o(.bss..L_MergedGlobals) for .L_MergedGlobals
    gt_hal_tick.o(.ARM.exidx) refers to gt_hal_tick.o(.text) for [Anonymous Symbol]
    gt_hal_vf.o(.text) refers to gt_hal_vf.o(.bss..L_MergedGlobals) for .L_MergedGlobals
    gt_hal_vf.o(.text) refers to gt_hal_vf.o(.rodata.str1.1) for .L.str
    gt_hal_vf.o(.text) refers to gt_mem.o(.text) for _mem_malloc
    gt_hal_vf.o(.text) refers to gt_hal_vf.o(.data._state) for _state
    gt_hal_vf.o(.text) refers to strcmp.o(.text) for strcmp
    gt_hal_vf.o(.text) refers to gt_hal_fs.o(.text) for _gt_hal_fp_init
    gt_hal_vf.o(.text) refers to printfa.o(i.__0printf) for __2printf
    gt_hal_vf.o(.ARM.exidx) refers to gt_hal_vf.o(.text) for [Anonymous Symbol]
    gt_anim.o(.text) refers to gt_math.o(.text) for gt_abs
    gt_anim.o(.text) refers to gt_anim.o(.bss..L_MergedGlobals) for .L_MergedGlobals
    gt_anim.o(.text) refers to gt_mem.o(.text) for gt_memset_0
    gt_anim.o(.text) refers to gt_anim.o(.rodata..Lswitch.table.gt_anim_set_path_type) for .Lswitch.table.gt_anim_set_path_type
    gt_anim.o(.text) refers to gt_anim.o(.rodata.str1.1) for .L.str
    gt_anim.o(.text) refers to gt_style.o(.text) for gt_obj_set_pos
    gt_anim.o(.text) refers to gt_gc.o(.data._gt_global_call) for _gt_global_call
    gt_anim.o(.text) refers to gt_hal_tick.o(.text) for gt_tick_get
    gt_anim.o(.text) refers to printfa.o(i.__0printf) for __2printf
    gt_anim.o(.text) refers to gt_timer.o(.text) for _gt_timer_set_paused
    gt_anim.o(.ARM.exidx) refers to gt_anim.o(.text) for [Anonymous Symbol]
    gt_anim.o(.rodata..Lswitch.table.gt_anim_set_path_type) refers to gt_anim.o(.text) for _gt_anim_path_ease_in
    gt_area.o(.ARM.exidx) refers to gt_area.o(.text) for [Anonymous Symbol]
    gt_color.o(.text) refers to gt_color.o(.data._focus_color) for _focus_color
    gt_color.o(.ARM.exidx) refers to gt_color.o(.text) for [Anonymous Symbol]
    gt_gc.o(.text) refers to gt_gc.o(.data._gt_global_call) for _gt_global_call
    gt_gc.o(.ARM.exidx) refers to gt_gc.o(.text) for [Anonymous Symbol]
    gt_math.o(.text) refers to gt_math.o(.rodata._gt_sin_90_table) for _gt_sin_90_table
    gt_math.o(.text) refers to dmul.o(.text) for __aeabi_dmul
    gt_math.o(.text) refers to gt_math.o(.rodata._gt_tab_per_255) for _gt_tab_per_255
    gt_math.o(.ARM.exidx) refers to gt_math.o(.text) for [Anonymous Symbol]
    gt_tlsf.o(.text) refers to printfa.o(i.__0printf) for __2printf
    gt_tlsf.o(.text) refers to gt_tlsf.o(.rodata.str1.1) for .L.str.8
    gt_tlsf.o(.text) refers to memseta.o(.text) for __aeabi_memclr4
    gt_tlsf.o(.text) refers to gt_mem.o(.text) for gt_memcpy
    gt_tlsf.o(.ARM.exidx) refers to gt_tlsf.o(.text) for [Anonymous Symbol]
    gt_txt.o(.text) refers to gt_font.o(.text) for gt_utf8_check_char
    gt_txt.o(.text) refers to strlen.o(.text) for strlen
    gt_txt.o(.text) refers to gt_txt.o(.rodata.str1.1) for .L.str
    gt_txt.o(.text) refers to gt_mem.o(.text) for _mem_realloc
    gt_txt.o(.ARM.exidx) refers to gt_txt.o(.text) for [Anonymous Symbol]
    gt_stack.o(.text) refers to gt_stack.o(.rodata.str1.1) for .L.str
    gt_stack.o(.text) refers to gt_mem.o(.text) for _mem_malloc
    gt_stack.o(.text) refers to gt_stack.o(.rodata.cst8) for .L__const.gt_stack_search_item_from_bottom.ret
    gt_stack.o(.ARM.exidx) refers to gt_stack.o(.text) for [Anonymous Symbol]
    gt_vector.o(.text) refers to gt_vector.o(.rodata.str1.1) for .L.str
    gt_vector.o(.text) refers to gt_mem.o(.text) for _mem_malloc
    gt_vector.o(.text) refers to strcmp.o(.text) for strcmp
    gt_vector.o(.ARM.exidx) refers to gt_vector.o(.text) for [Anonymous Symbol]
    gt_btn.o(.text) refers to strlen.o(.text) for strlen
    gt_btn.o(.text) refers to gt_style.o(.text) for gt_obj_get_state
    gt_btn.o(.text) refers to gt_graph_base.o(.text) for gt_graph_init_rect_attr
    gt_btn.o(.text) refers to gt_draw.o(.text) for draw_bg
    gt_btn.o(.text) refers to gt_vector.o(.text) for _gt_vector_free
    gt_btn.o(.text) refers to gt_btn.o(.rodata.str1.1) for .L.str
    gt_btn.o(.text) refers to gt_mem.o(.text) for _mem_free
    gt_btn.o(.text) refers to gt_event.o(.text) for gt_event_get_code
    gt_btn.o(.text) refers to gt_obj_class.o(.text) for gt_obj_class_get_type
    gt_btn.o(.text) refers to gt_disp.o(.text) for gt_disp_invalid_area
    gt_btn.o(.text) refers to gt_btn.o(.rodata.gt_btn_class) for gt_btn_class
    gt_btn.o(.text) refers to gt_font.o(.text) for gt_font_info_init
    gt_btn.o(.text) refers to strcmp.o(.text) for strcmp
    gt_btn.o(.text) refers to gt_obj.o(.text) for gt_obj_set_bgcolor
    gt_btn.o(.text) refers to printfa.o(i.__0vsnprintf) for vsnprintf
    gt_btn.o(.ARM.exidx) refers to gt_btn.o(.text) for [Anonymous Symbol]
    gt_btn.o(.rodata.gt_btn_class) refers to gt_btn.o(.text) for _init_cb
    gt_btnmap.o(.text) refers to memseta.o(.text) for __aeabi_memclr4
    gt_btnmap.o(.text) refers to gt_graph_base.o(.text) for gt_graph_init_rect_attr
    gt_btnmap.o(.text) refers to gt_font.o(.text) for gt_font_info_update_font_thick
    gt_btnmap.o(.text) refers to gt_draw.o(.text) for draw_bg
    gt_btnmap.o(.text) refers to gt_btnmap.o(.rodata.str1.1) for .L.str
    gt_btnmap.o(.text) refers to strcmp.o(.text) for strcmp
    gt_btnmap.o(.text) refers to strlen.o(.text) for strlen
    gt_btnmap.o(.text) refers to gt_obj_pos.o(.text) for gt_area_copy
    gt_btnmap.o(.text) refers to gt_mem.o(.text) for _mem_free
    gt_btnmap.o(.text) refers to gt_event.o(.text) for gt_event_get_code
    gt_btnmap.o(.text) refers to gt_disp.o(.text) for gt_disp_invalid_area
    gt_btnmap.o(.text) refers to gt_input.o(.text) for gt_input_append_value
    gt_btnmap.o(.text) refers to gt_btnmap.o(.rodata.gt_btnmap_class) for gt_btnmap_class
    gt_btnmap.o(.text) refers to gt_obj_class.o(.text) for gt_obj_class_create
    gt_btnmap.o(.text) refers to gt_btnmap.o(.bss._gt_update_map.buf_max) for _gt_update_map.buf_max
    gt_btnmap.o(.text) refers to printfa.o(i.__0printf) for __2printf
    gt_btnmap.o(.ARM.exidx) refers to gt_btnmap.o(.text) for [Anonymous Symbol]
    gt_btnmap.o(.rodata.gt_btnmap_class) refers to gt_btnmap.o(.text) for _init_cb
    gt_chat.o(.text) refers to gt_graph_base.o(.text) for gt_graph_init_rect_attr
    gt_chat.o(.text) refers to gt_draw.o(.text) for draw_bg
    gt_chat.o(.text) refers to gt_event.o(.text) for gt_event_get_code
    gt_chat.o(.text) refers to gt_disp.o(.text) for gt_disp_invalid_area
    gt_chat.o(.text) refers to gt_obj.o(.text) for gt_obj_get_limit_bottom
    gt_chat.o(.text) refers to gt_obj_scroll.o(.text) for gt_obj_scroll_get_y
    gt_chat.o(.text) refers to gt_style.o(.text) for gt_obj_get_state
    gt_chat.o(.text) refers to gt_chat.o(.rodata.gt_chat_class) for gt_chat_class
    gt_chat.o(.text) refers to gt_obj_class.o(.text) for gt_obj_class_create
    gt_chat.o(.text) refers to gt_mem.o(.text) for gt_memset_0
    gt_chat.o(.text) refers to gt_font.o(.text) for gt_font_info_init
    gt_chat.o(.text) refers to gt_anim.o(.text) for gt_anim_init
    gt_chat.o(.text) refers to gt_chat.o(.rodata..L__const._gt_set_voice_text.left_voice_icon) for .L__const._gt_set_voice_text.left_voice_icon
    gt_chat.o(.text) refers to gt_chat.o(.rodata..L__const._gt_set_voice_text.right_voice_icon) for .L__const._gt_set_voice_text.right_voice_icon
    gt_chat.o(.text) refers to gt_chat.o(.rodata.str1.1) for .L.str.1
    gt_chat.o(.text) refers to gt_btn.o(.text) for gt_btn_set_text
    gt_chat.o(.ARM.exidx) refers to gt_chat.o(.text) for [Anonymous Symbol]
    gt_chat.o(.rodata.gt_chat_class) refers to gt_chat.o(.text) for _init_cb
    gt_checkbox.o(.text) refers to strlen.o(.text) for strlen
    gt_checkbox.o(.text) refers to gt_graph_base.o(.text) for gt_graph_init_rect_attr
    gt_checkbox.o(.text) refers to gt_style.o(.text) for gt_obj_get_state
    gt_checkbox.o(.text) refers to gt_draw.o(.text) for draw_bg
    gt_checkbox.o(.text) refers to gt_checkbox.o(.rodata.str1.1) for .L.str
    gt_checkbox.o(.text) refers to gt_mem.o(.text) for _mem_free
    gt_checkbox.o(.text) refers to gt_event.o(.text) for gt_event_get_code
    gt_checkbox.o(.text) refers to gt_disp.o(.text) for gt_disp_invalid_area
    gt_checkbox.o(.text) refers to gt_checkbox.o(.rodata.gt_checkbox_class) for gt_checkbox_class
    gt_checkbox.o(.text) refers to gt_obj_class.o(.text) for gt_obj_class_create
    gt_checkbox.o(.text) refers to gt_font.o(.text) for gt_font_info_init
    gt_checkbox.o(.text) refers to printfa.o(i.__0vsnprintf) for vsnprintf
    gt_checkbox.o(.ARM.exidx) refers to gt_checkbox.o(.text) for [Anonymous Symbol]
    gt_checkbox.o(.rodata.gt_checkbox_class) refers to gt_checkbox.o(.text) for _init_cb
    gt_clock.o(.text) refers to gt_clock.o(.rodata.str1.1) for .L.str.1
    gt_clock.o(.text) refers to gt_mem.o(.text) for _mem_malloc
    gt_clock.o(.text) refers to strlen.o(.text) for strlen
    gt_clock.o(.text) refers to printfa.o(i.__0sprintf) for __2sprintf
    gt_clock.o(.text) refers to gt_obj_pos.o(.text) for gt_area_copy
    gt_clock.o(.text) refers to gt_label.o(.text) for gt_label_set_text
    gt_clock.o(.text) refers to gt_draw.o(.text) for draw_focus
    gt_clock.o(.text) refers to gt_timer.o(.text) for _gt_timer_del
    gt_clock.o(.text) refers to gt_event.o(.text) for gt_event_get_code
    gt_clock.o(.text) refers to gt_disp.o(.text) for gt_disp_invalid_area
    gt_clock.o(.text) refers to gt_clock.o(.rodata.gt_clock_class) for gt_clock_class
    gt_clock.o(.text) refers to gt_obj_class.o(.text) for gt_obj_class_create
    gt_clock.o(.text) refers to gt_style.o(.text) for gt_obj_set_inside
    gt_clock.o(.text) refers to puts.o(i.puts) for puts
    gt_clock.o(.ARM.exidx) refers to gt_clock.o(.text) for [Anonymous Symbol]
    gt_clock.o(.rodata.gt_clock_class) refers to gt_clock.o(.text) for _init_cb
    gt_dialog.o(.text) refers to gt_graph_base.o(.text) for gt_graph_init_rect_attr
    gt_dialog.o(.text) refers to gt_draw.o(.text) for draw_bg
    gt_dialog.o(.text) refers to gt_event.o(.text) for gt_event_get_code
    gt_dialog.o(.text) refers to gt_style.o(.text) for gt_obj_is_untouchability
    gt_dialog.o(.text) refers to gt_disp.o(.text) for gt_disp_invalid_area
    gt_dialog.o(.text) refers to gt_anim.o(.text) for gt_anim_init
    gt_dialog.o(.text) refers to gt_hal_disp.o(.text) for gt_disp_get_default
    gt_dialog.o(.text) refers to gt_dialog.o(.rodata.gt_dialog_class) for gt_dialog_class
    gt_dialog.o(.text) refers to gt_obj_class.o(.text) for gt_obj_class_create
    gt_dialog.o(.text) refers to gt_btn.o(.text) for gt_btn_create
    gt_dialog.o(.text) refers to gt_dialog.o(.rodata.str1.1) for .L.str
    gt_dialog.o(.text) refers to gt_label.o(.text) for gt_label_create
    gt_dialog.o(.text) refers to gt_obj.o(.text) for gt_obj_destroy
    gt_dialog.o(.ARM.exidx) refers to gt_dialog.o(.text) for [Anonymous Symbol]
    gt_dialog.o(.rodata.gt_dialog_class) refers to gt_dialog.o(.text) for _init_cb
    gt_gif.o(.text) refers to memseta.o(.text) for __aeabi_memclr4
    gt_gif.o(.text) refers to gt_draw.o(.text) for draw_bg_img
    gt_gif.o(.text) refers to gifdec.o(.text) for gd_close_gif
    gt_gif.o(.text) refers to gt_gif.o(.rodata.str1.1) for .L.str
    gt_gif.o(.text) refers to gt_mem.o(.text) for _mem_free
    gt_gif.o(.text) refers to gt_timer.o(.text) for _gt_timer_del
    gt_gif.o(.text) refers to gt_event.o(.text) for gt_event_get_code
    gt_gif.o(.text) refers to gt_disp.o(.text) for gt_disp_invalid_area
    gt_gif.o(.text) refers to gt_gif.o(.rodata.gt_gif_class) for gt_gif_class
    gt_gif.o(.text) refers to gt_obj_class.o(.text) for gt_obj_class_create
    gt_gif.o(.text) refers to gt_style.o(.text) for gt_obj_set_fixed
    gt_gif.o(.text) refers to gt_hal_tick.o(.text) for gt_tick_elapse
    gt_gif.o(.text) refers to strcmp.o(.text) for strcmp
    gt_gif.o(.text) refers to strlen.o(.text) for strlen
    gt_gif.o(.text) refers to strcpy.o(.text) for strcpy
    gt_gif.o(.ARM.exidx) refers to gt_gif.o(.text) for [Anonymous Symbol]
    gt_gif.o(.rodata.gt_gif_class) refers to gt_gif.o(.text) for _init_cb
    gt_group.o(.text) refers to gt_event.o(.text) for gt_event_get_code
    gt_group.o(.text) refers to gt_group.o(.rodata.gt_group_class) for gt_group_class
    gt_group.o(.text) refers to gt_obj_class.o(.text) for gt_obj_class_create
    gt_group.o(.text) refers to gt_style.o(.text) for gt_obj_set_virtual
    gt_group.o(.ARM.exidx) refers to gt_group.o(.text) for [Anonymous Symbol]
    gt_group.o(.rodata.gt_group_class) refers to gt_group.o(.text) for _init_cb
    gt_img.o(.text) refers to gt_draw.o(.text) for draw_bg_img
    gt_img.o(.text) refers to gt_img.o(.rodata.str1.1) for .L.str
    gt_img.o(.text) refers to gt_mem.o(.text) for _mem_free
    gt_img.o(.text) refers to printfa.o(i.__0printf) for __2printf
    gt_img.o(.text) refers to gt_event.o(.text) for gt_event_get_code
    gt_img.o(.text) refers to gt_disp.o(.text) for gt_disp_invalid_area
    gt_img.o(.text) refers to gt_obj_class.o(.text) for gt_obj_is_type
    gt_img.o(.text) refers to gt_fs.o(.text) for gt_fs_read_img_wh
    gt_img.o(.text) refers to gt_style.o(.text) for gt_obj_size_change
    gt_img.o(.text) refers to gt_img.o(.rodata.gt_img_class) for gt_img_class
    gt_img.o(.text) refers to strcmp.o(.text) for strcmp
    gt_img.o(.text) refers to strlen.o(.text) for strlen
    gt_img.o(.text) refers to strcpy.o(.text) for strcpy
    gt_img.o(.text) refers to gt_img_decoder.o(.text) for gt_img_decoder_get_info
    gt_img.o(.ARM.exidx) refers to gt_img.o(.text) for [Anonymous Symbol]
    gt_img.o(.rodata.gt_img_class) refers to gt_img.o(.text) for _init_cb
    gt_imgbtn.o(.text) refers to gt_draw.o(.text) for draw_bg_img
    gt_imgbtn.o(.text) refers to gt_vector.o(.text) for _gt_vector_free
    gt_imgbtn.o(.text) refers to gt_imgbtn.o(.rodata.str1.1) for .L.str
    gt_imgbtn.o(.text) refers to gt_mem.o(.text) for _mem_free
    gt_imgbtn.o(.text) refers to gt_event.o(.text) for gt_event_get_code
    gt_imgbtn.o(.text) refers to gt_fs.o(.text) for gt_fs_read_img_wh
    gt_imgbtn.o(.text) refers to gt_disp.o(.text) for gt_disp_invalid_area
    gt_imgbtn.o(.text) refers to gt_imgbtn.o(.rodata.gt_imgbtn_class) for gt_imgbtn_class
    gt_imgbtn.o(.text) refers to gt_obj_class.o(.text) for gt_obj_class_create
    gt_imgbtn.o(.text) refers to strcmp.o(.text) for strcmp
    gt_imgbtn.o(.text) refers to strlen.o(.text) for strlen
    gt_imgbtn.o(.text) refers to strcpy.o(.text) for strcpy
    gt_imgbtn.o(.ARM.exidx) refers to gt_imgbtn.o(.text) for [Anonymous Symbol]
    gt_imgbtn.o(.rodata.gt_imgbtn_class) refers to gt_imgbtn.o(.text) for _init_cb
    gt_input.o(.text) refers to gt_graph_base.o(.text) for gt_graph_init_rect_attr
    gt_input.o(.text) refers to gt_style.o(.text) for gt_obj_get_reduce
    gt_input.o(.text) refers to gt_draw.o(.text) for draw_bg
    gt_input.o(.text) refers to strlen.o(.text) for strlen
    gt_input.o(.text) refers to gt_input.o(.rodata.str1.1) for .L.str.1
    gt_input.o(.text) refers to gt_mem.o(.text) for _mem_free
    gt_input.o(.text) refers to gt_event.o(.text) for gt_event_get_code
    gt_input.o(.text) refers to gt_indev.o(.text) for gt_indev_get_key
    gt_input.o(.text) refers to gt_disp.o(.text) for gt_disp_invalid_area
    gt_input.o(.text) refers to gt_obj_class.o(.text) for gt_obj_is_type
    gt_input.o(.text) refers to gt_txt.o(.text) for gt_txt_check_char_numb
    gt_input.o(.text) refers to gt_input.o(.rodata.gt_input_class) for gt_input_class
    gt_input.o(.text) refers to gt_font.o(.text) for gt_font_info_init
    gt_input.o(.text) refers to printfa.o(i.__0vsnprintf) for vsnprintf
    gt_input.o(.ARM.exidx) refers to gt_input.o(.text) for [Anonymous Symbol]
    gt_input.o(.rodata.gt_input_class) refers to gt_input.o(.text) for _init_cb
    gt_input_number.o(.text) refers to gt_draw.o(.text) for draw_focus
    gt_input_number.o(.text) refers to gt_event.o(.text) for gt_event_get_code
    gt_input_number.o(.text) refers to gt_style.o(.text) for gt_obj_set_size
    gt_input_number.o(.text) refers to gt_disp.o(.text) for gt_disp_invalid_area
    gt_input_number.o(.text) refers to gt_input_number.o(.rodata.gt_input_number_class) for gt_input_number_class
    gt_input_number.o(.text) refers to gt_obj_class.o(.text) for gt_obj_class_create
    gt_input_number.o(.text) refers to gt_label.o(.text) for gt_label_create
    gt_input_number.o(.text) refers to gt_input_number.o(.rodata.str1.1) for .L.str
    gt_input_number.o(.text) refers to printfa.o(i.__0sprintf) for __2sprintf
    gt_input_number.o(.text) refers to dcmplt.o(.text) for __aeabi_dcmplt
    gt_input_number.o(.text) refers to dcmple.o(.text) for __aeabi_dcmple
    gt_input_number.o(.text) refers to dcmpge.o(.text) for __aeabi_dcmpge
    gt_input_number.o(.text) refers to dadd.o(.text) for __aeabi_dadd
    gt_input_number.o(.ARM.exidx) refers to gt_input_number.o(.text) for [Anonymous Symbol]
    gt_input_number.o(.rodata.gt_input_number_class) refers to gt_input_number.o(.text) for _init_cb
    gt_keypad.o(.text) refers to gt_graph_base.o(.text) for gt_graph_init_rect_attr
    gt_keypad.o(.text) refers to gt_draw.o(.text) for draw_bg
    gt_keypad.o(.text) refers to gt_btnmap.o(.text) for gt_btnmap_get_calc_minimum_width
    gt_keypad.o(.text) refers to gt_style.o(.text) for gt_obj_set_size
    gt_keypad.o(.text) refers to gt_event.o(.text) for gt_event_get_code
    gt_keypad.o(.text) refers to gt_disp.o(.text) for gt_disp_invalid_area
    gt_keypad.o(.text) refers to gt_obj.o(.text) for gt_obj_get_limit_bottom
    gt_keypad.o(.text) refers to gt_obj_scroll.o(.text) for gt_obj_scroll_get_y
    gt_keypad.o(.text) refers to gt_keypad.o(.rodata.gt_keypad_class) for gt_keypad_class
    gt_keypad.o(.text) refers to gt_obj_class.o(.text) for gt_obj_class_create
    gt_keypad.o(.text) refers to gt_keypad.o(.rodata._def_style_list) for _def_style_list
    gt_keypad.o(.text) refers to gt_keypad.o(.rodata.str1.1) for .L.str.113
    gt_keypad.o(.text) refers to printfa.o(i.__0printf) for __2printf
    gt_keypad.o(.text) refers to strcmp.o(.text) for strcmp
    gt_keypad.o(.text) refers to strlen.o(.text) for strlen
    gt_keypad.o(.text) refers to gt_input.o(.text) for gt_input_append_value
    gt_keypad.o(.text) refers to gt_font.o(.text) for gt_py_input_method_get_ascii_numb
    gt_keypad.o(.text) refers to gt_keypad.o(.rodata._low_map_default_26_key) for _low_map_default_26_key
    gt_keypad.o(.text) refers to gt_keypad.o(.rodata._up_map_default_26_key) for _up_map_default_26_key
    gt_keypad.o(.text) refers to gt_keypad.o(.rodata._list_default_26_key) for _list_default_26_key
    gt_keypad.o(.text) refers to gt_keypad.o(.rodata._ch_map_default_26_key) for _ch_map_default_26_key
    gt_keypad.o(.text) refers to gt_keypad.o(.rodata._gt_spell) for _gt_spell
    gt_keypad.o(.ARM.exidx) refers to gt_keypad.o(.text) for [Anonymous Symbol]
    gt_keypad.o(.rodata.gt_keypad_class) refers to gt_keypad.o(.text) for _init_cb
    gt_keypad.o(.rodata._def_style_list) refers to gt_keypad.o(.rodata._list_default_26_key) for [Anonymous Symbol]
    gt_keypad.o(.rodata._def_style_list) refers to gt_keypad.o(.text) for _def_26_key_disp_special_btn_handler
    gt_keypad.o(.rodata._def_style_list) refers to gt_keypad.o(.rodata._list_default_tlb) for [Anonymous Symbol]
    gt_keypad.o(.rodata._def_style_list) refers to gt_keypad.o(.rodata._list_default_fyb_369) for [Anonymous Symbol]
    gt_keypad.o(.rodata._list_default_26_key) refers to gt_keypad.o(.rodata._low_map_default_26_key) for [Anonymous Symbol]
    gt_keypad.o(.rodata._list_default_26_key) refers to gt_keypad.o(.rodata._up_map_default_26_key) for [Anonymous Symbol]
    gt_keypad.o(.rodata._list_default_26_key) refers to gt_keypad.o(.rodata._symbol_en_map_default_26_key) for [Anonymous Symbol]
    gt_keypad.o(.rodata._list_default_26_key) refers to gt_keypad.o(.rodata._ch_map_default_26_key) for [Anonymous Symbol]
    gt_keypad.o(.rodata._list_default_tlb) refers to gt_keypad.o(.rodata._low_map_default_tlb) for [Anonymous Symbol]
    gt_keypad.o(.rodata._list_default_tlb) refers to gt_keypad.o(.rodata._up_map_default_tlb) for [Anonymous Symbol]
    gt_keypad.o(.rodata._list_default_tlb) refers to gt_keypad.o(.rodata._numb_map_default_tlb) for [Anonymous Symbol]
    gt_keypad.o(.rodata._list_default_fyb_369) refers to gt_keypad.o(.rodata._low_map_default_fyb_369) for [Anonymous Symbol]
    gt_keypad.o(.rodata._list_default_fyb_369) refers to gt_keypad.o(.rodata._up_map_default_fyb_369) for [Anonymous Symbol]
    gt_keypad.o(.rodata._list_default_fyb_369) refers to gt_keypad.o(.rodata._numb_map_default_fyb_369) for [Anonymous Symbol]
    gt_keypad.o(.rodata._low_map_default_26_key) refers to gt_keypad.o(.rodata.str1.1) for [Anonymous Symbol]
    gt_keypad.o(.rodata._up_map_default_26_key) refers to gt_keypad.o(.rodata.str1.1) for [Anonymous Symbol]
    gt_keypad.o(.rodata._symbol_en_map_default_26_key) refers to gt_keypad.o(.rodata.str1.1) for [Anonymous Symbol]
    gt_keypad.o(.rodata._ch_map_default_26_key) refers to gt_keypad.o(.rodata._gt_spell) for [Anonymous Symbol]
    gt_keypad.o(.rodata._ch_map_default_26_key) refers to gt_keypad.o(.rodata.str1.1) for [Anonymous Symbol]
    gt_keypad.o(.rodata._low_map_default_tlb) refers to gt_keypad.o(.rodata.str1.1) for [Anonymous Symbol]
    gt_keypad.o(.rodata._up_map_default_tlb) refers to gt_keypad.o(.rodata.str1.1) for [Anonymous Symbol]
    gt_keypad.o(.rodata._numb_map_default_tlb) refers to gt_keypad.o(.rodata.str1.1) for [Anonymous Symbol]
    gt_keypad.o(.rodata._low_map_default_fyb_369) refers to gt_keypad.o(.rodata.str1.1) for [Anonymous Symbol]
    gt_keypad.o(.rodata._up_map_default_fyb_369) refers to gt_keypad.o(.rodata.str1.1) for [Anonymous Symbol]
    gt_keypad.o(.rodata._numb_map_default_fyb_369) refers to gt_keypad.o(.rodata.str1.1) for [Anonymous Symbol]
    gt_label.o(.text) refers to strlen.o(.text) for strlen
    gt_label.o(.text) refers to gt_style.o(.text) for gt_obj_get_reduce
    gt_label.o(.text) refers to gt_draw.o(.text) for draw_text
    gt_label.o(.text) refers to gt_anim.o(.text) for gt_anim_del_by
    gt_label.o(.text) refers to gt_label.o(.rodata.str1.1) for .L.str
    gt_label.o(.text) refers to gt_mem.o(.text) for _mem_free
    gt_label.o(.text) refers to gt_event.o(.text) for gt_event_get_code
    gt_label.o(.text) refers to gt_disp.o(.text) for gt_disp_invalid_area
    gt_label.o(.text) refers to gt_label.o(.rodata.gt_label_class) for gt_label_class
    gt_label.o(.text) refers to gt_obj_class.o(.text) for gt_obj_class_create
    gt_label.o(.text) refers to gt_font.o(.text) for gt_font_info_init
    gt_label.o(.text) refers to printfa.o(i.__0vsnprintf) for vsnprintf
    gt_label.o(.ARM.exidx) refers to gt_label.o(.text) for [Anonymous Symbol]
    gt_label.o(.rodata.gt_label_class) refers to gt_label.o(.text) for _init_cb
    gt_line.o(.text) refers to gt_graph_base.o(.text) for gt_graph_init_rect_attr
    gt_line.o(.text) refers to gt_draw.o(.text) for draw_bg
    gt_line.o(.text) refers to gt_event.o(.text) for gt_event_get_code
    gt_line.o(.text) refers to gt_disp.o(.text) for gt_disp_invalid_area
    gt_line.o(.text) refers to gt_line.o(.rodata.gt_line_class) for gt_line_class
    gt_line.o(.text) refers to gt_obj_class.o(.text) for gt_obj_class_create
    gt_line.o(.ARM.exidx) refers to gt_line.o(.text) for [Anonymous Symbol]
    gt_line.o(.rodata.gt_line_class) refers to gt_line.o(.text) for _init_cb
    gt_listview.o(.text) refers to gt_graph_base.o(.text) for gt_graph_init_rect_attr
    gt_listview.o(.text) refers to gt_draw.o(.text) for draw_bg
    gt_listview.o(.text) refers to gt_event.o(.text) for gt_event_get_code
    gt_listview.o(.text) refers to gt_style.o(.text) for gt_obj_get_trigger_mode
    gt_listview.o(.text) refers to gt_obj.o(.text) for gt_obj_get_childs_max_height
    gt_listview.o(.text) refers to gt_disp.o(.text) for gt_disp_invalid_area
    gt_listview.o(.text) refers to gt_obj_scroll.o(.text) for gt_obj_scroll_get_y
    gt_listview.o(.text) refers to gt_listview.o(.rodata.gt_listview_class) for gt_listview_class
    gt_listview.o(.text) refers to gt_obj_class.o(.text) for gt_obj_class_create
    gt_listview.o(.text) refers to gt_font.o(.text) for gt_font_info_init
    gt_listview.o(.text) refers to gt_label.o(.text) for gt_label_create
    gt_listview.o(.text) refers to gt_obj_pos.o(.text) for gt_area_copy
    gt_listview.o(.text) refers to gt_math.o(.text) for gt_abs
    gt_listview.o(.text) refers to gt_img.o(.text) for gt_img_create
    gt_listview.o(.ARM.exidx) refers to gt_listview.o(.text) for [Anonymous Symbol]
    gt_listview.o(.rodata.gt_listview_class) refers to gt_listview.o(.text) for _init_cb
    gt_obj.o(.text) refers to gt_timer.o(.text) for _gt_timer_get_user_data
    gt_obj.o(.text) refers to gt_gc.o(.data._gt_global_call) for _gt_global_call
    gt_obj.o(.text) refers to gt_obj_class.o(.text) for _gt_obj_class_destroy
    gt_obj.o(.text) refers to gt_obj.o(.rodata.str1.1) for .L.str
    gt_obj.o(.text) refers to printfa.o(i.__0printf) for __2printf
    gt_obj.o(.text) refers to gt_obj.o(.rodata.gt_obj_class) for gt_obj_class
    gt_obj.o(.text) refers to gt_obj.o(.rodata.gt_screen_class) for gt_screen_class
    gt_obj.o(.text) refers to gt_hal_disp.o(.text) for gt_disp_get_default
    gt_obj.o(.text) refers to gt_style.o(.text) for gt_obj_child_set_prop
    gt_obj.o(.text) refers to gt_graph_base.o(.text) for gt_graph_init_rect_attr
    gt_obj.o(.text) refers to gt_draw.o(.text) for draw_bg
    gt_obj.o(.text) refers to gt_event.o(.text) for gt_event_get_code
    gt_obj.o(.text) refers to gt_disp.o(.text) for gt_disp_invalid_area
    gt_obj.o(.text) refers to gt_obj_scroll.o(.text) for gt_obj_scroll_to_y
    gt_obj.o(.ARM.exidx) refers to gt_obj.o(.text) for [Anonymous Symbol]
    gt_obj.o(.rodata.gt_obj_class) refers to gt_obj.o(.text) for _init_cb
    gt_obj.o(.rodata.gt_screen_class) refers to gt_obj.o(.text) for _screen_event_cb
    gt_obj_class.o(.text) refers to gt_obj_class.o(.rodata.str1.1) for .L.str
    gt_obj_class.o(.text) refers to gt_mem.o(.text) for _mem_malloc
    gt_obj_class.o(.text) refers to gt_style.o(.text) for gt_obj_set_overflow
    gt_obj_class.o(.text) refers to gt_event.o(.text) for gt_event_send
    gt_obj_class.o(.text) refers to gt_layout.o(.text) for gt_layout_row_grow
    gt_obj_class.o(.text) refers to gt_hal_disp.o(.text) for gt_disp_get_default
    gt_obj_class.o(.text) refers to gt_indev.o(.text) for _gt_indev_remove_want_delate_target
    gt_obj_class.o(.ARM.exidx) refers to gt_obj_class.o(.text) for [Anonymous Symbol]
    gt_option.o(.text) refers to gt_event.o(.text) for gt_event_get_code
    gt_option.o(.text) refers to gt_option.o(.rodata.gt_option_class) for gt_option_class
    gt_option.o(.text) refers to gt_obj_class.o(.text) for gt_obj_class_create
    gt_option.o(.ARM.exidx) refers to gt_option.o(.text) for [Anonymous Symbol]
    gt_option.o(.rodata.gt_option_class) refers to gt_option.o(.text) for _init_cb
    gt_player.o(.text) refers to gt_draw.o(.text) for draw_bg_img
    gt_player.o(.text) refers to gt_timer.o(.text) for _gt_timer_del
    gt_player.o(.text) refers to gt_player.o(.rodata.str1.1) for .L.str
    gt_player.o(.text) refers to gt_mem.o(.text) for _mem_free
    gt_player.o(.text) refers to gt_event.o(.text) for gt_event_get_code
    gt_player.o(.text) refers to gt_disp.o(.text) for gt_disp_invalid_area
    gt_player.o(.text) refers to gt_player.o(.rodata.gt_player_class) for gt_player_class
    gt_player.o(.text) refers to gt_obj_class.o(.text) for gt_obj_class_create
    gt_player.o(.text) refers to gt_hal_tick.o(.text) for gt_tick_elapse
    gt_player.o(.text) refers to printfa.o(i.__0printf) for __2printf
    gt_player.o(.text) refers to dflti.o(.text) for __aeabi_i2d
    gt_player.o(.text) refers to dmul.o(.text) for __aeabi_dmul
    gt_player.o(.text) refers to dfltui.o(.text) for __aeabi_ui2d
    gt_player.o(.text) refers to ddiv.o(.text) for __aeabi_ddiv
    gt_player.o(.text) refers to d2f.o(.text) for __aeabi_d2f
    gt_player.o(.text) refers to gt_fs.o(.text) for gt_fs_read_img_wh
    gt_player.o(.ARM.exidx) refers to gt_player.o(.text) for [Anonymous Symbol]
    gt_player.o(.rodata.gt_player_class) refers to gt_player.o(.text) for _init_cb
    gt_progress_bar.o(.text) refers to gt_graph_base.o(.text) for gt_graph_init_rect_attr
    gt_progress_bar.o(.text) refers to fflti.o(.text) for __aeabi_i2f
    gt_progress_bar.o(.text) refers to fdiv.o(.text) for __aeabi_fdiv
    gt_progress_bar.o(.text) refers to fmul.o(.text) for __aeabi_fmul
    gt_progress_bar.o(.text) refers to ffixi.o(.text) for __aeabi_f2iz
    gt_progress_bar.o(.text) refers to gt_draw.o(.text) for draw_bg
    gt_progress_bar.o(.text) refers to gt_event.o(.text) for gt_event_get_code
    gt_progress_bar.o(.text) refers to gt_obj_class.o(.text) for gt_obj_is_type
    gt_progress_bar.o(.text) refers to gt_disp.o(.text) for gt_disp_invalid_area
    gt_progress_bar.o(.text) refers to gt_progress_bar.o(.rodata.gt_progress_bar_class) for gt_progress_bar_class
    gt_progress_bar.o(.ARM.exidx) refers to gt_progress_bar.o(.text) for [Anonymous Symbol]
    gt_progress_bar.o(.rodata.gt_progress_bar_class) refers to gt_progress_bar.o(.text) for _init_cb
    gt_radio.o(.text) refers to strlen.o(.text) for strlen
    gt_radio.o(.text) refers to gt_style.o(.text) for gt_obj_get_reduce
    gt_radio.o(.text) refers to gt_graph_base.o(.text) for gt_graph_init_rect_attr
    gt_radio.o(.text) refers to gt_draw.o(.text) for draw_bg
    gt_radio.o(.text) refers to gt_radio.o(.rodata.str1.1) for .L.str
    gt_radio.o(.text) refers to gt_mem.o(.text) for _mem_free
    gt_radio.o(.text) refers to gt_event.o(.text) for gt_event_get_code
    gt_radio.o(.text) refers to gt_disp.o(.text) for gt_disp_invalid_area
    gt_radio.o(.text) refers to gt_radio.o(.rodata.gt_radio_class) for gt_radio_class
    gt_radio.o(.text) refers to gt_obj_class.o(.text) for gt_obj_class_create
    gt_radio.o(.text) refers to gt_font.o(.text) for gt_font_info_init
    gt_radio.o(.text) refers to printfa.o(i.__0vsnprintf) for vsnprintf
    gt_radio.o(.ARM.exidx) refers to gt_radio.o(.text) for [Anonymous Symbol]
    gt_radio.o(.rodata.gt_radio_class) refers to gt_radio.o(.text) for _init_cb
    gt_rect.o(.text) refers to gt_graph_base.o(.text) for gt_graph_init_rect_attr
    gt_rect.o(.text) refers to gt_draw.o(.text) for draw_bg
    gt_rect.o(.text) refers to gt_event.o(.text) for gt_event_get_code
    gt_rect.o(.text) refers to gt_disp.o(.text) for gt_disp_invalid_area
    gt_rect.o(.text) refers to gt_rect.o(.rodata.gt_rect_class) for gt_rect_class
    gt_rect.o(.text) refers to gt_obj_class.o(.text) for gt_obj_class_create
    gt_rect.o(.ARM.exidx) refers to gt_rect.o(.text) for [Anonymous Symbol]
    gt_rect.o(.rodata.gt_rect_class) refers to gt_rect.o(.text) for _init_cb
    gt_roller.o(.text) refers to gt_graph_base.o(.text) for gt_graph_init_rect_attr
    gt_roller.o(.text) refers to gt_draw.o(.text) for draw_bg
    gt_roller.o(.text) refers to gt_event.o(.text) for gt_event_get_code
    gt_roller.o(.text) refers to gt_obj_class.o(.text) for gt_obj_is_type
    gt_roller.o(.text) refers to gt_obj_scroll.o(.text) for gt_obj_scroll_get_y
    gt_roller.o(.text) refers to gt_math.o(.text) for gt_abs
    gt_roller.o(.text) refers to gt_anim.o(.text) for gt_anim_init
    gt_roller.o(.text) refers to gt_style.o(.text) for gt_obj_set_pos
    gt_roller.o(.text) refers to gt_roller.o(.rodata.gt_roller_class) for gt_roller_class
    gt_roller.o(.text) refers to gt_label.o(.text) for gt_label_get_font_size
    gt_roller.o(.text) refers to strlen.o(.text) for strlen
    gt_roller.o(.text) refers to gt_roller.o(.rodata.str1.1) for .L.str
    gt_roller.o(.text) refers to gt_mem.o(.text) for _mem_malloc
    gt_roller.o(.ARM.exidx) refers to gt_roller.o(.text) for [Anonymous Symbol]
    gt_roller.o(.rodata.gt_roller_class) refers to gt_roller.o(.text) for _init_cb
    gt_slider.o(.text) refers to gt_graph_base.o(.text) for gt_graph_init_rect_attr
    gt_slider.o(.text) refers to gt_obj_pos.o(.text) for gt_area_copy
    gt_slider.o(.text) refers to gt_draw.o(.text) for draw_bg
    gt_slider.o(.text) refers to gt_img.o(.text) for gt_img_get_src
    gt_slider.o(.text) refers to gt_fs.o(.text) for gt_fs_read_img_wh
    gt_slider.o(.text) refers to gt_style.o(.text) for gt_obj_set_area
    gt_slider.o(.text) refers to gt_mem.o(.text) for _mem_free
    gt_slider.o(.text) refers to gt_event.o(.text) for gt_event_get_code
    gt_slider.o(.text) refers to gt_disp.o(.text) for gt_disp_invalid_area
    gt_slider.o(.text) refers to gt_slider.o(.rodata.gt_slider_class) for gt_slider_class
    gt_slider.o(.text) refers to gt_obj_class.o(.text) for gt_obj_class_create
    gt_slider.o(.text) refers to gt_obj.o(.text) for gt_obj_create
    gt_slider.o(.text) refers to gt_indev.o(.text) for gt_indev_get_point
    gt_slider.o(.ARM.exidx) refers to gt_slider.o(.text) for [Anonymous Symbol]
    gt_slider.o(.rodata.gt_slider_class) refers to gt_slider.o(.text) for _init_cb
    gt_status_bar.o(.text) refers to gt_graph_base.o(.text) for gt_graph_init_rect_attr
    gt_status_bar.o(.text) refers to gt_draw.o(.text) for draw_bg
    gt_status_bar.o(.text) refers to gt_event.o(.text) for gt_event_get_code
    gt_status_bar.o(.text) refers to gt_disp.o(.text) for gt_disp_invalid_area
    gt_status_bar.o(.text) refers to gt_hal_disp.o(.text) for gt_disp_get_default
    gt_status_bar.o(.text) refers to gt_status_bar.o(.rodata.gt_status_bar_class) for gt_status_bar_class
    gt_status_bar.o(.text) refers to gt_obj_class.o(.text) for gt_obj_class_create
    gt_status_bar.o(.text) refers to gt_font.o(.text) for gt_font_info_init
    gt_status_bar.o(.text) refers to gt_status_bar.o(.rodata.str1.1) for .L.str
    gt_status_bar.o(.text) refers to printfa.o(i.__0printf) for __2printf
    gt_status_bar.o(.text) refers to gt_obj.o(.text) for gt_obj_create
    gt_status_bar.o(.text) refers to gt_style.o(.text) for gt_obj_set_row_layout
    gt_status_bar.o(.text) refers to gt_layout.o(.text) for gt_layout_row_grow
    gt_status_bar.o(.text) refers to gt_img.o(.text) for gt_img_get_width
    gt_status_bar.o(.text) refers to strcmp.o(.text) for strcmp
    gt_status_bar.o(.text) refers to gt_label.o(.text) for gt_label_get_text
    gt_status_bar.o(.ARM.exidx) refers to gt_status_bar.o(.text) for [Anonymous Symbol]
    gt_status_bar.o(.rodata.gt_status_bar_class) refers to gt_status_bar.o(.text) for _init_cb
    gt_switch.o(.text) refers to gt_style.o(.text) for gt_obj_get_state
    gt_switch.o(.text) refers to gt_graph_base.o(.text) for gt_graph_init_rect_attr
    gt_switch.o(.text) refers to gt_draw.o(.text) for draw_bg
    gt_switch.o(.text) refers to gt_event.o(.text) for gt_event_get_code
    gt_switch.o(.text) refers to gt_disp.o(.text) for gt_disp_invalid_area
    gt_switch.o(.text) refers to gt_switch.o(.rodata.gt_switcher_class) for gt_switcher_class
    gt_switch.o(.text) refers to gt_obj_class.o(.text) for gt_obj_class_create
    gt_switch.o(.text) refers to gt_switch.o(.rodata.str1.1) for .L.str.2
    gt_switch.o(.text) refers to printfa.o(i.__0printf) for __2printf
    gt_switch.o(.ARM.exidx) refers to gt_switch.o(.text) for [Anonymous Symbol]
    gt_switch.o(.rodata.gt_switcher_class) refers to gt_switch.o(.text) for _init_cb
    gt_textarea.o(.text) refers to gt_style.o(.text) for gt_obj_get_reduce
    gt_textarea.o(.text) refers to gt_graph_base.o(.text) for gt_graph_init_rect_attr
    gt_textarea.o(.text) refers to gt_draw.o(.text) for draw_bg
    gt_textarea.o(.text) refers to gt_textarea.o(.rodata.str1.1) for .L.str
    gt_textarea.o(.text) refers to gt_mem.o(.text) for _mem_free
    gt_textarea.o(.text) refers to gt_event.o(.text) for gt_event_get_code
    gt_textarea.o(.text) refers to gt_disp.o(.text) for gt_disp_invalid_area
    gt_textarea.o(.text) refers to gt_math.o(.text) for gt_abs
    gt_textarea.o(.text) refers to gt_textarea.o(.rodata.gt_textarea_class) for gt_textarea_class
    gt_textarea.o(.text) refers to gt_obj_class.o(.text) for gt_obj_class_create
    gt_textarea.o(.text) refers to gt_font.o(.text) for gt_font_info_init
    gt_textarea.o(.text) refers to strlen.o(.text) for strlen
    gt_textarea.o(.ARM.exidx) refers to gt_textarea.o(.text) for [Anonymous Symbol]
    gt_textarea.o(.rodata.gt_textarea_class) refers to gt_textarea.o(.text) for _init_cb
    gt_view_pager.o(.text) refers to gt_graph_base.o(.text) for gt_graph_init_rect_attr
    gt_view_pager.o(.text) refers to gt_draw.o(.text) for draw_bg
    gt_view_pager.o(.text) refers to gt_math.o(.text) for gt_abs
    gt_view_pager.o(.text) refers to gt_obj_scroll.o(.text) for gt_obj_scroll_to_x
    gt_view_pager.o(.text) refers to gt_style.o(.text) for gt_obj_set_pos
    gt_view_pager.o(.text) refers to gt_disp.o(.text) for gt_disp_invalid_area
    gt_view_pager.o(.text) refers to gt_view_pager.o(.rodata._gt_view_pager_class) for _gt_view_pager_class
    gt_view_pager.o(.text) refers to gt_obj_class.o(.text) for gt_obj_class_create
    gt_view_pager.o(.text) refers to gt_hal_disp.o(.text) for gt_disp_get_res_hor
    gt_view_pager.o(.text) refers to gt_event.o(.text) for gt_event_send
    gt_view_pager.o(.text) refers to gt_obj.o(.text) for gt_obj_is_child
    gt_view_pager.o(.text) refers to gt_obj_pos.o(.text) for gt_area_copy
    gt_view_pager.o(.ARM.exidx) refers to gt_view_pager.o(.text) for [Anonymous Symbol]
    gt_view_pager.o(.rodata._gt_view_pager_class) refers to gt_view_pager.o(.text) for _init_cb
    gt_wordart.o(.text) refers to memseta.o(.text) for __aeabi_memclr4
    gt_wordart.o(.text) refers to strlen.o(.text) for strlen
    gt_wordart.o(.text) refers to gt_font.o(.text) for _gt_utf8_to_unicode
    gt_wordart.o(.text) refers to gt_draw.o(.text) for draw_bg_img
    gt_wordart.o(.text) refers to gt_wordart.o(.rodata.str1.1) for .L.str
    gt_wordart.o(.text) refers to gt_mem.o(.text) for _mem_free
    gt_wordart.o(.text) refers to gt_event.o(.text) for gt_event_get_code
    gt_wordart.o(.text) refers to gt_disp.o(.text) for gt_disp_invalid_area
    gt_wordart.o(.text) refers to gt_wordart.o(.rodata.gt_word_art_class) for gt_word_art_class
    gt_wordart.o(.text) refers to gt_obj_class.o(.text) for gt_obj_class_create
    gt_wordart.o(.text) refers to printfa.o(i.__0vsnprintf) for vsnprintf
    gt_wordart.o(.ARM.exidx) refers to gt_wordart.o(.text) for [Anonymous Symbol]
    gt_wordart.o(.rodata.gt_word_art_class) refers to gt_wordart.o(.text) for _init_cb
    gt_init_screen_home.o(.text) refers to gt_obj.o(.text) for gt_obj_create
    gt_init_screen_home.o(.text) refers to gt_init_screen_home.o(.bss..L_MergedGlobals) for .L_MergedGlobals
    gt_init_screen_home.o(.text) refers to gt_img.o(.text) for gt_img_create
    gt_init_screen_home.o(.text) refers to gt_style.o(.text) for gt_obj_set_pos
    gt_init_screen_home.o(.text) refers to gt_init_screen_home.o(.rodata.str1.1) for .L.str
    gt_init_screen_home.o(.text) refers to gt_imgbtn.o(.text) for gt_imgbtn_create
    gt_init_screen_home.o(.text) refers to gt_event.o(.text) for gt_obj_add_event_cb
    gt_init_screen_home.o(.text) refers to gt_player.o(.text) for gt_player_create
    gt_init_screen_home.o(.ARM.exidx) refers to gt_init_screen_home.o(.text) for [Anonymous Symbol]
    gt_ui.o(.text) refers to gt_ui.o(.rodata.gt_scr_list) for gt_scr_list
    gt_ui.o(.text) refers to gt_scr_stack.o(.text) for gt_scr_stack_register_id_list
    gt_ui.o(.text) refers to gt_disp.o(.text) for gt_disp_stack_load_scr
    gt_ui.o(.ARM.exidx) refers to gt_ui.o(.text) for [Anonymous Symbol]
    gt_ui.o(.rodata.gt_scr_list) refers to gt_init_screen_home.o(.text) for gt_init_screen_home
    gt_gui_driver.o(.text) refers to gt_gui_driver.o(.bss.GT_UID_MD5_FLAG) for GT_UID_MD5_FLAG
    gt_gui_driver.o(.text) refers to bsp_sfc.o(.text) for gt_read_data
    gt_gui_driver.o(.text) refers to gt_gui_driver.o(.rodata.gtuid) for gtuid
    gt_gui_driver.o(.text) refers to memseta.o(.text) for __aeabi_memclr
    gt_gui_driver.o(.text) refers to memcmp.o(.text) for memcmp
    gt_gui_driver.o(.text) refers to memmovea.o(.text) for __aeabi_memcpy
    gt_gui_driver.o(.text) refers to gt_gui_driver.o(.data.PADDING) for PADDING
    gt_gui_driver.o(.text) refers to gt_gui_driver.o(.bss.gt_font_chinese_encoding) for gt_font_chinese_encoding
    gt_gui_driver.o(.text) refers to gt_gui_driver.o(.rodata.gt_get_font_func) for gt_get_font_func
    gt_gui_driver.o(.ARM.exidx) refers to gt_gui_driver.o(.text) for [Anonymous Symbol]
    gt_gui_driver.o(.rodata.gt_get_font_func) refers to gt_gui_driver.o(.text) for GT_GetChinese
    ceil.o(i.__softfp_ceil) refers (Special) to iusefp.o(.text) for __I$use$fp
    ceil.o(i.__softfp_ceil) refers to ceil.o(i.ceil) for ceil
    ceil.o(i.ceil) refers (Special) to iusefp.o(.text) for __I$use$fp
    ceil.o(i.ceil) refers to dadd.o(.text) for __aeabi_dadd
    ceil.o(i.ceil) refers to cdrcmple.o(.text) for __aeabi_cdrcmple
    entry.o(.ARM.Collect$$$$00000000) refers (Special) to entry10a.o(.ARM.Collect$$$$0000000D) for __rt_final_cpp
    entry.o(.ARM.Collect$$$$00000000) refers (Special) to entry11a.o(.ARM.Collect$$$$0000000F) for __rt_final_exit
    entry.o(.ARM.Collect$$$$00000000) refers (Special) to entry7b.o(.ARM.Collect$$$$00000008) for _main_clock
    entry.o(.ARM.Collect$$$$00000000) refers (Special) to entry8b.o(.ARM.Collect$$$$0000000A) for _main_cpp_init
    entry.o(.ARM.Collect$$$$00000000) refers (Special) to entry9a.o(.ARM.Collect$$$$0000000B) for _main_init
    entry.o(.ARM.Collect$$$$00000000) refers (Special) to entry5.o(.ARM.Collect$$$$00000004) for _main_scatterload
    entry.o(.ARM.Collect$$$$00000000) refers (Special) to entry2.o(.ARM.Collect$$$$00000001) for _main_stk
    puts.o(i.puts) refers to bsp_uart.o(.text) for fputc
    puts.o(i.puts) refers to stdout.o(.data) for __stdout
    puts_e.o(.text) refers to bsp_uart.o(.text) for fputc
    puts_e.o(.text) refers to stdout.o(.data) for __stdout
    printfb.o(i.__0fprintf$bare) refers to printfb.o(i._printf_core) for _printf_core
    printfb.o(i.__0fprintf$bare) refers to bsp_uart.o(.text) for fputc
    printfb.o(i.__0printf$bare) refers to printfb.o(i._printf_core) for _printf_core
    printfb.o(i.__0printf$bare) refers to bsp_uart.o(.text) for fputc
    printfb.o(i.__0printf$bare) refers to stdout.o(.data) for __stdout
    printfb.o(i.__0snprintf$bare) refers to printfb.o(i._printf_core) for _printf_core
    printfb.o(i.__0snprintf$bare) refers to printfb.o(i._snputc) for _snputc
    printfb.o(i.__0sprintf$bare) refers to printfb.o(i._printf_core) for _printf_core
    printfb.o(i.__0sprintf$bare) refers to printfb.o(i._sputc) for _sputc
    printfb.o(i.__0vfprintf$bare) refers to printfb.o(i._printf_core) for _printf_core
    printfb.o(i.__0vfprintf$bare) refers to bsp_uart.o(.text) for fputc
    printfb.o(i.__0vprintf$bare) refers to printfb.o(i._printf_core) for _printf_core
    printfb.o(i.__0vprintf$bare) refers to bsp_uart.o(.text) for fputc
    printfb.o(i.__0vprintf$bare) refers to stdout.o(.data) for __stdout
    printfb.o(i.__0vsnprintf$bare) refers to printfb.o(i._printf_core) for _printf_core
    printfb.o(i.__0vsnprintf$bare) refers to printfb.o(i._snputc) for _snputc
    printfb.o(i.__0vsprintf$bare) refers to printfb.o(i._printf_core) for _printf_core
    printfb.o(i.__0vsprintf$bare) refers to printfb.o(i._sputc) for _sputc
    printf0.o(i.__0fprintf$0) refers to printf0.o(i._printf_core) for _printf_core
    printf0.o(i.__0fprintf$0) refers to bsp_uart.o(.text) for fputc
    printf0.o(i.__0printf$0) refers to printf0.o(i._printf_core) for _printf_core
    printf0.o(i.__0printf$0) refers to bsp_uart.o(.text) for fputc
    printf0.o(i.__0printf$0) refers to stdout.o(.data) for __stdout
    printf0.o(i.__0snprintf$0) refers to printf0.o(i._printf_core) for _printf_core
    printf0.o(i.__0snprintf$0) refers to printf0.o(i._snputc) for _snputc
    printf0.o(i.__0sprintf$0) refers to printf0.o(i._printf_core) for _printf_core
    printf0.o(i.__0sprintf$0) refers to printf0.o(i._sputc) for _sputc
    printf0.o(i.__0vfprintf$0) refers to printf0.o(i._printf_core) for _printf_core
    printf0.o(i.__0vfprintf$0) refers to bsp_uart.o(.text) for fputc
    printf0.o(i.__0vprintf$0) refers to printf0.o(i._printf_core) for _printf_core
    printf0.o(i.__0vprintf$0) refers to bsp_uart.o(.text) for fputc
    printf0.o(i.__0vprintf$0) refers to stdout.o(.data) for __stdout
    printf0.o(i.__0vsnprintf$0) refers to printf0.o(i._printf_core) for _printf_core
    printf0.o(i.__0vsnprintf$0) refers to printf0.o(i._snputc) for _snputc
    printf0.o(i.__0vsprintf$0) refers to printf0.o(i._printf_core) for _printf_core
    printf0.o(i.__0vsprintf$0) refers to printf0.o(i._sputc) for _sputc
    printf1.o(i.__0fprintf$1) refers to printf1.o(i._printf_core) for _printf_core
    printf1.o(i.__0fprintf$1) refers to bsp_uart.o(.text) for fputc
    printf1.o(i.__0printf$1) refers to printf1.o(i._printf_core) for _printf_core
    printf1.o(i.__0printf$1) refers to bsp_uart.o(.text) for fputc
    printf1.o(i.__0printf$1) refers to stdout.o(.data) for __stdout
    printf1.o(i.__0snprintf$1) refers to printf1.o(i._printf_core) for _printf_core
    printf1.o(i.__0snprintf$1) refers to printf1.o(i._snputc) for _snputc
    printf1.o(i.__0sprintf$1) refers to printf1.o(i._printf_core) for _printf_core
    printf1.o(i.__0sprintf$1) refers to printf1.o(i._sputc) for _sputc
    printf1.o(i.__0vfprintf$1) refers to printf1.o(i._printf_core) for _printf_core
    printf1.o(i.__0vfprintf$1) refers to bsp_uart.o(.text) for fputc
    printf1.o(i.__0vprintf$1) refers to printf1.o(i._printf_core) for _printf_core
    printf1.o(i.__0vprintf$1) refers to bsp_uart.o(.text) for fputc
    printf1.o(i.__0vprintf$1) refers to stdout.o(.data) for __stdout
    printf1.o(i.__0vsnprintf$1) refers to printf1.o(i._printf_core) for _printf_core
    printf1.o(i.__0vsnprintf$1) refers to printf1.o(i._snputc) for _snputc
    printf1.o(i.__0vsprintf$1) refers to printf1.o(i._printf_core) for _printf_core
    printf1.o(i.__0vsprintf$1) refers to printf1.o(i._sputc) for _sputc
    printf1.o(i._printf_core) refers to uidiv.o(.text) for __aeabi_uidivmod
    printf2.o(i.__0fprintf$2) refers to printf2.o(i._printf_core) for _printf_core
    printf2.o(i.__0fprintf$2) refers to bsp_uart.o(.text) for fputc
    printf2.o(i.__0printf$2) refers to printf2.o(i._printf_core) for _printf_core
    printf2.o(i.__0printf$2) refers to bsp_uart.o(.text) for fputc
    printf2.o(i.__0printf$2) refers to stdout.o(.data) for __stdout
    printf2.o(i.__0snprintf$2) refers to printf2.o(i._printf_core) for _printf_core
    printf2.o(i.__0snprintf$2) refers to printf2.o(i._snputc) for _snputc
    printf2.o(i.__0sprintf$2) refers to printf2.o(i._printf_core) for _printf_core
    printf2.o(i.__0sprintf$2) refers to printf2.o(i._sputc) for _sputc
    printf2.o(i.__0vfprintf$2) refers to printf2.o(i._printf_core) for _printf_core
    printf2.o(i.__0vfprintf$2) refers to bsp_uart.o(.text) for fputc
    printf2.o(i.__0vprintf$2) refers to printf2.o(i._printf_core) for _printf_core
    printf2.o(i.__0vprintf$2) refers to bsp_uart.o(.text) for fputc
    printf2.o(i.__0vprintf$2) refers to stdout.o(.data) for __stdout
    printf2.o(i.__0vsnprintf$2) refers to printf2.o(i._printf_core) for _printf_core
    printf2.o(i.__0vsnprintf$2) refers to printf2.o(i._snputc) for _snputc
    printf2.o(i.__0vsprintf$2) refers to printf2.o(i._printf_core) for _printf_core
    printf2.o(i.__0vsprintf$2) refers to printf2.o(i._sputc) for _sputc
    printf3.o(i.__0fprintf$3) refers to printf3.o(i._printf_core) for _printf_core
    printf3.o(i.__0fprintf$3) refers to bsp_uart.o(.text) for fputc
    printf3.o(i.__0printf$3) refers to printf3.o(i._printf_core) for _printf_core
    printf3.o(i.__0printf$3) refers to bsp_uart.o(.text) for fputc
    printf3.o(i.__0printf$3) refers to stdout.o(.data) for __stdout
    printf3.o(i.__0snprintf$3) refers to printf3.o(i._printf_core) for _printf_core
    printf3.o(i.__0snprintf$3) refers to printf3.o(i._snputc) for _snputc
    printf3.o(i.__0sprintf$3) refers to printf3.o(i._printf_core) for _printf_core
    printf3.o(i.__0sprintf$3) refers to printf3.o(i._sputc) for _sputc
    printf3.o(i.__0vfprintf$3) refers to printf3.o(i._printf_core) for _printf_core
    printf3.o(i.__0vfprintf$3) refers to bsp_uart.o(.text) for fputc
    printf3.o(i.__0vprintf$3) refers to printf3.o(i._printf_core) for _printf_core
    printf3.o(i.__0vprintf$3) refers to bsp_uart.o(.text) for fputc
    printf3.o(i.__0vprintf$3) refers to stdout.o(.data) for __stdout
    printf3.o(i.__0vsnprintf$3) refers to printf3.o(i._printf_core) for _printf_core
    printf3.o(i.__0vsnprintf$3) refers to printf3.o(i._snputc) for _snputc
    printf3.o(i.__0vsprintf$3) refers to printf3.o(i._printf_core) for _printf_core
    printf3.o(i.__0vsprintf$3) refers to printf3.o(i._sputc) for _sputc
    printf3.o(i._printf_core) refers to uidiv.o(.text) for __aeabi_uidivmod
    printf4.o(i.__0fprintf$4) refers to printf4.o(i._printf_core) for _printf_core
    printf4.o(i.__0fprintf$4) refers to bsp_uart.o(.text) for fputc
    printf4.o(i.__0printf$4) refers to printf4.o(i._printf_core) for _printf_core
    printf4.o(i.__0printf$4) refers to bsp_uart.o(.text) for fputc
    printf4.o(i.__0printf$4) refers to stdout.o(.data) for __stdout
    printf4.o(i.__0snprintf$4) refers to printf4.o(i._printf_core) for _printf_core
    printf4.o(i.__0snprintf$4) refers to printf4.o(i._snputc) for _snputc
    printf4.o(i.__0sprintf$4) refers to printf4.o(i._printf_core) for _printf_core
    printf4.o(i.__0sprintf$4) refers to printf4.o(i._sputc) for _sputc
    printf4.o(i.__0vfprintf$4) refers to printf4.o(i._printf_core) for _printf_core
    printf4.o(i.__0vfprintf$4) refers to bsp_uart.o(.text) for fputc
    printf4.o(i.__0vprintf$4) refers to printf4.o(i._printf_core) for _printf_core
    printf4.o(i.__0vprintf$4) refers to bsp_uart.o(.text) for fputc
    printf4.o(i.__0vprintf$4) refers to stdout.o(.data) for __stdout
    printf4.o(i.__0vsnprintf$4) refers to printf4.o(i._printf_core) for _printf_core
    printf4.o(i.__0vsnprintf$4) refers to printf4.o(i._snputc) for _snputc
    printf4.o(i.__0vsprintf$4) refers to printf4.o(i._printf_core) for _printf_core
    printf4.o(i.__0vsprintf$4) refers to printf4.o(i._sputc) for _sputc
    printf4.o(i._printf_core) refers to uldiv.o(.text) for __aeabi_uldivmod
    printf5.o(i.__0fprintf$5) refers to printf5.o(i._printf_core) for _printf_core
    printf5.o(i.__0fprintf$5) refers to bsp_uart.o(.text) for fputc
    printf5.o(i.__0printf$5) refers to printf5.o(i._printf_core) for _printf_core
    printf5.o(i.__0printf$5) refers to bsp_uart.o(.text) for fputc
    printf5.o(i.__0printf$5) refers to stdout.o(.data) for __stdout
    printf5.o(i.__0snprintf$5) refers to printf5.o(i._printf_core) for _printf_core
    printf5.o(i.__0snprintf$5) refers to printf5.o(i._snputc) for _snputc
    printf5.o(i.__0sprintf$5) refers to printf5.o(i._printf_core) for _printf_core
    printf5.o(i.__0sprintf$5) refers to printf5.o(i._sputc) for _sputc
    printf5.o(i.__0vfprintf$5) refers to printf5.o(i._printf_core) for _printf_core
    printf5.o(i.__0vfprintf$5) refers to bsp_uart.o(.text) for fputc
    printf5.o(i.__0vprintf$5) refers to printf5.o(i._printf_core) for _printf_core
    printf5.o(i.__0vprintf$5) refers to bsp_uart.o(.text) for fputc
    printf5.o(i.__0vprintf$5) refers to stdout.o(.data) for __stdout
    printf5.o(i.__0vsnprintf$5) refers to printf5.o(i._printf_core) for _printf_core
    printf5.o(i.__0vsnprintf$5) refers to printf5.o(i._snputc) for _snputc
    printf5.o(i.__0vsprintf$5) refers to printf5.o(i._printf_core) for _printf_core
    printf5.o(i.__0vsprintf$5) refers to printf5.o(i._sputc) for _sputc
    printf5.o(i._printf_core) refers to uldiv.o(.text) for __aeabi_uldivmod
    printf6.o(i.__0fprintf$6) refers to printf6.o(i._printf_core) for _printf_core
    printf6.o(i.__0fprintf$6) refers to bsp_uart.o(.text) for fputc
    printf6.o(i.__0printf$6) refers to printf6.o(i._printf_core) for _printf_core
    printf6.o(i.__0printf$6) refers to bsp_uart.o(.text) for fputc
    printf6.o(i.__0printf$6) refers to stdout.o(.data) for __stdout
    printf6.o(i.__0snprintf$6) refers to printf6.o(i._printf_core) for _printf_core
    printf6.o(i.__0snprintf$6) refers to printf6.o(i._snputc) for _snputc
    printf6.o(i.__0sprintf$6) refers to printf6.o(i._printf_core) for _printf_core
    printf6.o(i.__0sprintf$6) refers to printf6.o(i._sputc) for _sputc
    printf6.o(i.__0vfprintf$6) refers to printf6.o(i._printf_core) for _printf_core
    printf6.o(i.__0vfprintf$6) refers to bsp_uart.o(.text) for fputc
    printf6.o(i.__0vprintf$6) refers to printf6.o(i._printf_core) for _printf_core
    printf6.o(i.__0vprintf$6) refers to bsp_uart.o(.text) for fputc
    printf6.o(i.__0vprintf$6) refers to stdout.o(.data) for __stdout
    printf6.o(i.__0vsnprintf$6) refers to printf6.o(i._printf_core) for _printf_core
    printf6.o(i.__0vsnprintf$6) refers to printf6.o(i._snputc) for _snputc
    printf6.o(i.__0vsprintf$6) refers to printf6.o(i._printf_core) for _printf_core
    printf6.o(i.__0vsprintf$6) refers to printf6.o(i._sputc) for _sputc
    printf6.o(i._printf_core) refers to printf6.o(i._printf_pre_padding) for _printf_pre_padding
    printf6.o(i._printf_core) refers to uidiv.o(.text) for __aeabi_uidivmod
    printf6.o(i._printf_core) refers to printf6.o(i._printf_post_padding) for _printf_post_padding
    printf7.o(i.__0fprintf$7) refers to printf7.o(i._printf_core) for _printf_core
    printf7.o(i.__0fprintf$7) refers to bsp_uart.o(.text) for fputc
    printf7.o(i.__0printf$7) refers to printf7.o(i._printf_core) for _printf_core
    printf7.o(i.__0printf$7) refers to bsp_uart.o(.text) for fputc
    printf7.o(i.__0printf$7) refers to stdout.o(.data) for __stdout
    printf7.o(i.__0snprintf$7) refers to printf7.o(i._printf_core) for _printf_core
    printf7.o(i.__0snprintf$7) refers to printf7.o(i._snputc) for _snputc
    printf7.o(i.__0sprintf$7) refers to printf7.o(i._printf_core) for _printf_core
    printf7.o(i.__0sprintf$7) refers to printf7.o(i._sputc) for _sputc
    printf7.o(i.__0vfprintf$7) refers to printf7.o(i._printf_core) for _printf_core
    printf7.o(i.__0vfprintf$7) refers to bsp_uart.o(.text) for fputc
    printf7.o(i.__0vprintf$7) refers to printf7.o(i._printf_core) for _printf_core
    printf7.o(i.__0vprintf$7) refers to bsp_uart.o(.text) for fputc
    printf7.o(i.__0vprintf$7) refers to stdout.o(.data) for __stdout
    printf7.o(i.__0vsnprintf$7) refers to printf7.o(i._printf_core) for _printf_core
    printf7.o(i.__0vsnprintf$7) refers to printf7.o(i._snputc) for _snputc
    printf7.o(i.__0vsprintf$7) refers to printf7.o(i._printf_core) for _printf_core
    printf7.o(i.__0vsprintf$7) refers to printf7.o(i._sputc) for _sputc
    printf7.o(i._printf_core) refers to printf7.o(i._printf_pre_padding) for _printf_pre_padding
    printf7.o(i._printf_core) refers to uldiv.o(.text) for __aeabi_uldivmod
    printf7.o(i._printf_core) refers to printf7.o(i._printf_post_padding) for _printf_post_padding
    printf8.o(i.__0fprintf$8) refers to printf8.o(i._printf_core) for _printf_core
    printf8.o(i.__0fprintf$8) refers to bsp_uart.o(.text) for fputc
    printf8.o(i.__0printf$8) refers to printf8.o(i._printf_core) for _printf_core
    printf8.o(i.__0printf$8) refers to bsp_uart.o(.text) for fputc
    printf8.o(i.__0printf$8) refers to stdout.o(.data) for __stdout
    printf8.o(i.__0snprintf$8) refers to printf8.o(i._printf_core) for _printf_core
    printf8.o(i.__0snprintf$8) refers to printf8.o(i._snputc) for _snputc
    printf8.o(i.__0sprintf$8) refers to printf8.o(i._printf_core) for _printf_core
    printf8.o(i.__0sprintf$8) refers to printf8.o(i._sputc) for _sputc
    printf8.o(i.__0vfprintf$8) refers to printf8.o(i._printf_core) for _printf_core
    printf8.o(i.__0vfprintf$8) refers to bsp_uart.o(.text) for fputc
    printf8.o(i.__0vprintf$8) refers to printf8.o(i._printf_core) for _printf_core
    printf8.o(i.__0vprintf$8) refers to bsp_uart.o(.text) for fputc
    printf8.o(i.__0vprintf$8) refers to stdout.o(.data) for __stdout
    printf8.o(i.__0vsnprintf$8) refers to printf8.o(i._printf_core) for _printf_core
    printf8.o(i.__0vsnprintf$8) refers to printf8.o(i._snputc) for _snputc
    printf8.o(i.__0vsprintf$8) refers to printf8.o(i._printf_core) for _printf_core
    printf8.o(i.__0vsprintf$8) refers to printf8.o(i._sputc) for _sputc
    printf8.o(i._printf_core) refers to printf8.o(i._printf_pre_padding) for _printf_pre_padding
    printf8.o(i._printf_core) refers to uldiv.o(.text) for __aeabi_uldivmod
    printf8.o(i._printf_core) refers to printf8.o(i._printf_post_padding) for _printf_post_padding
    printfa.o(i.__0fprintf) refers (Special) to iusefp.o(.text) for __I$use$fp
    printfa.o(i.__0fprintf) refers to printfa.o(i._printf_core) for _printf_core
    printfa.o(i.__0fprintf) refers to bsp_uart.o(.text) for fputc
    printfa.o(i.__0printf) refers (Special) to iusefp.o(.text) for __I$use$fp
    printfa.o(i.__0printf) refers to printfa.o(i._printf_core) for _printf_core
    printfa.o(i.__0printf) refers to bsp_uart.o(.text) for fputc
    printfa.o(i.__0printf) refers to stdout.o(.data) for __stdout
    printfa.o(i.__0snprintf) refers (Special) to iusefp.o(.text) for __I$use$fp
    printfa.o(i.__0snprintf) refers to printfa.o(i._printf_core) for _printf_core
    printfa.o(i.__0snprintf) refers to printfa.o(i._snputc) for _snputc
    printfa.o(i.__0sprintf) refers (Special) to iusefp.o(.text) for __I$use$fp
    printfa.o(i.__0sprintf) refers to printfa.o(i._printf_core) for _printf_core
    printfa.o(i.__0sprintf) refers to printfa.o(i._sputc) for _sputc
    printfa.o(i.__0vfprintf) refers (Special) to iusefp.o(.text) for __I$use$fp
    printfa.o(i.__0vfprintf) refers to printfa.o(i._printf_core) for _printf_core
    printfa.o(i.__0vfprintf) refers to bsp_uart.o(.text) for fputc
    printfa.o(i.__0vprintf) refers (Special) to iusefp.o(.text) for __I$use$fp
    printfa.o(i.__0vprintf) refers to printfa.o(i._printf_core) for _printf_core
    printfa.o(i.__0vprintf) refers to bsp_uart.o(.text) for fputc
    printfa.o(i.__0vprintf) refers to stdout.o(.data) for __stdout
    printfa.o(i.__0vsnprintf) refers (Special) to iusefp.o(.text) for __I$use$fp
    printfa.o(i.__0vsnprintf) refers to printfa.o(i._printf_core) for _printf_core
    printfa.o(i.__0vsnprintf) refers to printfa.o(i._snputc) for _snputc
    printfa.o(i.__0vsprintf) refers (Special) to iusefp.o(.text) for __I$use$fp
    printfa.o(i.__0vsprintf) refers to printfa.o(i._printf_core) for _printf_core
    printfa.o(i.__0vsprintf) refers to printfa.o(i._sputc) for _sputc
    printfa.o(i._fp_digits) refers (Special) to iusefp.o(.text) for __I$use$fp
    printfa.o(i._fp_digits) refers to dmul.o(.text) for __aeabi_dmul
    printfa.o(i._fp_digits) refers to ddiv.o(.text) for __aeabi_ddiv
    printfa.o(i._fp_digits) refers to cdrcmple.o(.text) for __aeabi_cdrcmple
    printfa.o(i._fp_digits) refers to dadd.o(.text) for __aeabi_dadd
    printfa.o(i._fp_digits) refers to dfixul.o(.text) for __aeabi_d2ulz
    printfa.o(i._fp_digits) refers to uldiv.o(.text) for __aeabi_uldivmod
    printfa.o(i._printf_core) refers (Special) to iusefp.o(.text) for __I$use$fp
    printfa.o(i._printf_core) refers to printfa.o(i._printf_pre_padding) for _printf_pre_padding
    printfa.o(i._printf_core) refers to uldiv.o(.text) for __aeabi_uldivmod
    printfa.o(i._printf_core) refers to printfa.o(i._printf_post_padding) for _printf_post_padding
    printfa.o(i._printf_core) refers to printfa.o(i._fp_digits) for _fp_digits
    printfa.o(i._printf_core) refers to uidiv.o(.text) for __aeabi_uidivmod
    printfa.o(i._printf_post_padding) refers (Special) to iusefp.o(.text) for __I$use$fp
    printfa.o(i._printf_pre_padding) refers (Special) to iusefp.o(.text) for __I$use$fp
    printfa.o(i._snputc) refers (Special) to iusefp.o(.text) for __I$use$fp
    printfa.o(i._sputc) refers (Special) to iusefp.o(.text) for __I$use$fp
    fmul.o(.text) refers (Special) to iusefp.o(.text) for __I$use$fp
    fdiv.o(.text) refers (Special) to iusefp.o(.text) for __I$use$fp
    fdiv.o(.text) refers to fepilogue.o(.text) for _float_round
    dadd.o(.text) refers (Special) to iusefp.o(.text) for __I$use$fp
    dadd.o(.text) refers to llshl.o(.text) for __aeabi_llsl
    dadd.o(.text) refers to llsshr.o(.text) for __aeabi_lasr
    dadd.o(.text) refers to depilogue.o(.text) for _double_epilogue
    dmul.o(.text) refers (Special) to iusefp.o(.text) for __I$use$fp
    dmul.o(.text) refers to depilogue.o(.text) for _double_epilogue
    ddiv.o(.text) refers (Special) to iusefp.o(.text) for __I$use$fp
    ddiv.o(.text) refers to depilogue.o(.text) for _double_round
    dcmple.o(.text) refers (Special) to iusefp.o(.text) for __I$use$fp
    dcmplt.o(.text) refers (Special) to iusefp.o(.text) for __I$use$fp
    dcmpge.o(.text) refers (Special) to iusefp.o(.text) for __I$use$fp
    fflti.o(.text) refers (Special) to iusefp.o(.text) for __I$use$fp
    fflti.o(.text) refers to fepilogue.o(.text) for _float_epilogue
    ffltui.o(.text) refers (Special) to iusefp.o(.text) for __I$use$fp
    ffltui.o(.text) refers to fepilogue.o(.text) for _float_epilogue
    dflti.o(.text) refers (Special) to iusefp.o(.text) for __I$use$fp
    dflti.o(.text) refers to depilogue.o(.text) for _double_epilogue
    dfltui.o(.text) refers (Special) to iusefp.o(.text) for __I$use$fp
    dfltui.o(.text) refers to depilogue.o(.text) for _double_epilogue
    ffixi.o(.text) refers (Special) to iusefp.o(.text) for __I$use$fp
    dfixi.o(.text) refers (Special) to iusefp.o(.text) for __I$use$fp
    dfixi.o(.text) refers to llushr.o(.text) for __aeabi_llsr
    f2d.o(.text) refers (Special) to iusefp.o(.text) for __I$use$fp
    d2f.o(.text) refers (Special) to iusefp.o(.text) for __I$use$fp
    d2f.o(.text) refers to fepilogue.o(.text) for _float_round
    entry2.o(.ARM.Collect$$$$00000001) refers to entry2.o(.ARM.Collect$$$$00002712) for __lit__00000000
    entry2.o(.ARM.Collect$$$$00002712) refers to startup_swm341.o(STACK) for __initial_sp
    entry2.o(__vectab_stack_and_reset_area) refers to startup_swm341.o(STACK) for __initial_sp
    entry2.o(__vectab_stack_and_reset_area) refers to entry.o(.ARM.Collect$$$$00000000) for __main
    entry5.o(.ARM.Collect$$$$00000004) refers to init.o(.text) for __scatterload
    entry9a.o(.ARM.Collect$$$$0000000B) refers to main.o(.text) for main
    entry9b.o(.ARM.Collect$$$$0000000C) refers to main.o(.text) for main
    uldiv.o(.text) refers to llushr.o(.text) for __aeabi_llsr
    uldiv.o(.text) refers to llshl.o(.text) for __aeabi_llsl
    fepilogue.o(.text) refers (Special) to iusefp.o(.text) for __I$use$fp
    depilogue.o(.text) refers (Special) to iusefp.o(.text) for __I$use$fp
    depilogue.o(.text) refers to llshl.o(.text) for __aeabi_llsl
    depilogue.o(.text) refers to llushr.o(.text) for __aeabi_llsr
    dfixul.o(.text) refers (Special) to iusefp.o(.text) for __I$use$fp
    dfixul.o(.text) refers to llushr.o(.text) for __aeabi_llsr
    dfixul.o(.text) refers to llshl.o(.text) for __aeabi_llsl
    cdrcmple.o(.text) refers (Special) to iusefp.o(.text) for __I$use$fp
    init.o(.text) refers to entry5.o(.ARM.Collect$$$$00000004) for __main_after_scatterload


==============================================================================

Removing Unused input sections from the image.

    Removing main.o(.ARM.exidx), (56 bytes).
    Removing main.o(.ARM.use_no_argv), (4 bytes).
    Removing bsp_lcd_rgb.o(.ARM.exidx), (40 bytes).
    Removing bsp_lcd_rgb.o(.bss.lcddev), (14 bytes).
    Removing bsp_lcd_rgb.o(.bss.BACK_COLOR), (4 bytes).
    Removing bsp_led.o(.text), (82 bytes).
    Removing bsp_led.o(.ARM.exidx), (32 bytes).
    Removing bsp_sfc.o(.ARM.exidx), (64 bytes).
    Removing bsp_uart.o(.ARM.exidx), (40 bytes).
    Removing dev_dac.o(.text), (170 bytes).
    Removing dev_dac.o(.ARM.exidx), (24 bytes).
    Removing dev_sdio.o(.text), (98 bytes).
    Removing dev_sdio.o(.ARM.exidx), (8 bytes).
    Removing dev_sdram.o(.text), (516 bytes).
    Removing dev_sdram.o(.ARM.exidx), (8 bytes).
    Removing dev_systick.o(.ARM.exidx), (56 bytes).
    Removing dev_touch.o(.ARM.exidx), (24 bytes).
    Removing gt911.o(.ARM.exidx), (56 bytes).
    Removing gt911.o(.rodata.GT911_CFG_TBL), (184 bytes).
    Removing gt911.o(.rodata.GT911_TPX_TBL), (10 bytes).
    Removing gt911.o(.rodata.str1.1), (4 bytes).
    Removing system_swm341.o(.ARM.exidx), (96 bytes).
    Removing startup_swm341.o(HEAP), (0 bytes).
    Removing swm341_adc.o(.text), (1526 bytes).
    Removing swm341_adc.o(.ARM.exidx), (112 bytes).
    Removing swm341_adc.o(.rodata..Lswitch.table.ADC_DataAvailable), (28 bytes).
    Removing swm341_adc.o(.rodata..Lswitch.table.ADC_INTStat), (28 bytes).
    Removing swm341_can.o(.text), (1124 bytes).
    Removing swm341_can.o(.ARM.exidx), (136 bytes).
    Removing swm341_cordic.o(.text), (30 bytes).
    Removing swm341_cordic.o(.ARM.exidx), (8 bytes).
    Removing swm341_crc.o(.text), (100 bytes).
    Removing swm341_crc.o(.ARM.exidx), (16 bytes).
    Removing swm341_dac.o(.text), (102 bytes).
    Removing swm341_dac.o(.ARM.exidx), (24 bytes).
    Removing swm341_div.o(.text), (30 bytes).
    Removing swm341_div.o(.ARM.exidx), (8 bytes).
    Removing swm341_dma.o(.text), (790 bytes).
    Removing swm341_dma.o(.ARM.exidx), (88 bytes).
    Removing swm341_dma2d.o(.text), (472 bytes).
    Removing swm341_dma2d.o(.ARM.exidx), (80 bytes).
    Removing swm341_exti.o(.ARM.exidx), (48 bytes).
    Removing swm341_flash.o(.ARM.exidx), (24 bytes).
    Removing swm341_flash.o(.rodata.IAP_Cache_Reset), (4 bytes).
    Removing swm341_flash.o(.rodata.IAP_Flash_Param), (4 bytes).
    Removing swm341_flash.o(.rodata.IAP_Flash_Erase), (4 bytes).
    Removing swm341_flash.o(.rodata.IAP_Flash_Write), (4 bytes).
    Removing swm341_gpio.o(.ARM.exidx), (120 bytes).
    Removing swm341_i2c.o(.ARM.exidx), (128 bytes).
    Removing swm341_iofilt.o(.text), (126 bytes).
    Removing swm341_iofilt.o(.ARM.exidx), (24 bytes).
    Removing swm341_iofilt.o(.bss.Width), (8 bytes).
    Removing swm341_jpeg.o(.text), (2676 bytes).
    Removing swm341_jpeg.o(.ARM.exidx), (24 bytes).
    Removing swm341_lcd.o(.ARM.exidx), (128 bytes).
    Removing swm341_port.o(.ARM.exidx), (8 bytes).
    Removing swm341_pwm.o(.text), (958 bytes).
    Removing swm341_pwm.o(.ARM.exidx), (216 bytes).
    Removing swm341_qei.o(.text), (206 bytes).
    Removing swm341_qei.o(.ARM.exidx), (56 bytes).
    Removing swm341_rtc.o(.text), (1164 bytes).
    Removing swm341_rtc.o(.ARM.exidx), (200 bytes).
    Removing swm341_rtc.o(.rodata..L__const.calcWeekDay.daysOfMonth), (52 bytes).
    Removing swm341_sdio.o(.text), (4920 bytes).
    Removing swm341_sdio.o(.ARM.exidx), (88 bytes).
    Removing swm341_sdio.o(.bss.SD_cardInfo), (80 bytes).
    Removing swm341_sdio.o(.rodata.str4.4), (16 bytes).
    Removing swm341_sdram.o(.ARM.exidx), (24 bytes).
    Removing swm341_sfc.o(.ARM.exidx), (88 bytes).
    Removing swm341_sleep.o(.text), (0 bytes).
    Removing swm341_spi.o(.text), (962 bytes).
    Removing swm341_spi.o(.ARM.exidx), (144 bytes).
    Removing swm341_timr.o(.ARM.exidx), (240 bytes).
    Removing swm341_uart.o(.ARM.exidx), (192 bytes).
    Removing swm341_usbd.o(.text), (3400 bytes).
    Removing swm341_usbd.o(.ARM.exidx), (112 bytes).
    Removing swm341_usbd.o(.bss.Setup_Packet), (8 bytes).
    Removing swm341_usbd.o(.data.pUSB_Setup), (4 bytes).
    Removing swm341_usbd.o(.bss..L_MergedGlobals), (64 bytes).
    Removing swm341_usbh.o(.text), (970 bytes).
    Removing swm341_usbh.o(.ARM.exidx), (80 bytes).
    Removing swm341_usbh.o(.bss.Speed), (4 bytes).
    Removing swm341_wdt.o(.ARM.exidx), (48 bytes).
    Removing gt_port_disp.o(.ARM.exidx), (8 bytes).
    Removing gt_port_indev.o(.ARM.exidx), (8 bytes).
    Removing gt_port_src.o(.ARM.exidx), (8 bytes).
    Removing gt_port_vf.o(.ARM.exidx), (8 bytes).
    Removing gt_disp.o(.ARM.exidx), (184 bytes).
    Removing gt_draw.o(.ARM.exidx), (72 bytes).
    Removing gt_event.o(.ARM.exidx), (40 bytes).
    Removing gt_fs.o(.ARM.exidx), (80 bytes).
    Removing gt_graph_base.o(.ARM.exidx), (40 bytes).
    Removing gt_handler.o(.ARM.exidx), (16 bytes).
    Removing gt_img_decoder.o(.ARM.exidx), (128 bytes).
    Removing gt_indev.o(.ARM.exidx), (96 bytes).
    Removing gt_layout.o(.ARM.exidx), (24 bytes).
    Removing gt_mem.o(.ARM.exidx), (88 bytes).
    Removing gt_obj_pos.o(.ARM.exidx), (80 bytes).
    Removing gt_obj_scroll.o(.ARM.exidx), (80 bytes).
    Removing gt_refr.o(.ARM.exidx), (8 bytes).
    Removing gt_scr_stack.o(.ARM.exidx), (192 bytes).
    Removing gt_style.o(.ARM.exidx), (536 bytes).
    Removing gt_timer.o(.ARM.exidx), (112 bytes).
    Removing gt_extra.o(.ARM.exidx), (8 bytes).
    Removing gt_draw_blend.o(.ARM.exidx), (16 bytes).
    Removing gt_draw_blend_with_argb888.o(.text), (4158 bytes).
    Removing gt_draw_blend_with_argb888.o(.ARM.exidx), (16 bytes).
    Removing gt_draw_blend_with_rgb565.o(.ARM.exidx), (16 bytes).
    Removing gt_draw_blend_with_rgb888.o(.text), (4158 bytes).
    Removing gt_draw_blend_with_rgb888.o(.ARM.exidx), (16 bytes).
    Removing gifdec.o(.text), (3844 bytes).
    Removing gifdec.o(.ARM.exidx), (56 bytes).
    Removing gifdec.o(.rodata.str1.1), (37 bytes).
    Removing gt_sjpg.o(.ARM.exidx), (64 bytes).
    Removing tjpgd.o(.ARM.exidx), (24 bytes).
    Removing gt_png.o(.ARM.exidx), (40 bytes).
    Removing lodepng.o(.ARM.exidx), (624 bytes).
    Removing lodepng.o(.data.LODEPNG_VERSION_STRING), (4 bytes).
    Removing lodepng.o(.rodata.lodepng_default_decompress_settings), (24 bytes).
    Removing gt_font.o(.ARM.exidx), (328 bytes).
    Removing gt_symbol.o(.ARM.exidx), (16 bytes).
    Removing gt_hal_disp.o(.ARM.exidx), (152 bytes).
    Removing gt_hal_file_header.o(.text), (0 bytes).
    Removing gt_hal_fs.o(.ARM.exidx), (8 bytes).
    Removing gt_hal_indev.o(.ARM.exidx), (48 bytes).
    Removing gt_hal_src.o(.ARM.exidx), (56 bytes).
    Removing gt_hal_tick.o(.ARM.exidx), (24 bytes).
    Removing gt_hal_vf.o(.ARM.exidx), (72 bytes).
    Removing gt_anim.o(.ARM.exidx), (160 bytes).
    Removing gt_area.o(.ARM.exidx), (48 bytes).
    Removing gt_color.o(.ARM.exidx), (24 bytes).
    Removing gt_effects.o(.text), (0 bytes).
    Removing gt_gc.o(.ARM.exidx), (32 bytes).
    Removing gt_ll.o(.text), (0 bytes).
    Removing gt_math.o(.ARM.exidx), (56 bytes).
    Removing gt_tlsf.o(.ARM.exidx), (184 bytes).
    Removing gt_txt.o(.text), (430 bytes).
    Removing gt_txt.o(.ARM.exidx), (24 bytes).
    Removing gt_txt.o(.rodata.str1.1), (34 bytes).
    Removing gt_stack.o(.ARM.exidx), (136 bytes).
    Removing gt_vector.o(.ARM.exidx), (104 bytes).
    Removing gt_barcode.o(.text), (0 bytes).
    Removing gt_btn.o(.ARM.exidx), (248 bytes).
    Removing gt_btnmap.o(.text), (3022 bytes).
    Removing gt_btnmap.o(.ARM.exidx), (280 bytes).
    Removing gt_btnmap.o(.rodata.gt_btnmap_class), (16 bytes).
    Removing gt_btnmap.o(.rodata.str1.1), (41 bytes).
    Removing gt_btnmap.o(.bss._gt_update_map.buf_max), (2 bytes).
    Removing gt_chat.o(.text), (2978 bytes).
    Removing gt_chat.o(.ARM.exidx), (216 bytes).
    Removing gt_chat.o(.rodata.gt_chat_class), (16 bytes).
    Removing gt_chat.o(.rodata..L__const._gt_set_voice_text.left_voice_icon), (12 bytes).
    Removing gt_chat.o(.rodata..L__const._gt_set_voice_text.right_voice_icon), (12 bytes).
    Removing gt_chat.o(.rodata.str1.1), (14 bytes).
    Removing gt_checkbox.o(.text), (1174 bytes).
    Removing gt_checkbox.o(.ARM.exidx), (160 bytes).
    Removing gt_checkbox.o(.rodata.gt_checkbox_class), (16 bytes).
    Removing gt_checkbox.o(.rodata.str1.1), (40 bytes).
    Removing gt_clock.o(.text), (4118 bytes).
    Removing gt_clock.o(.ARM.exidx), (336 bytes).
    Removing gt_clock.o(.rodata.gt_clock_class), (16 bytes).
    Removing gt_clock.o(.rodata.str1.1), (51 bytes).
    Removing gt_dialog.o(.ARM.exidx), (272 bytes).
    Removing gt_gif.o(.text), (890 bytes).
    Removing gt_gif.o(.ARM.exidx), (112 bytes).
    Removing gt_gif.o(.rodata.gt_gif_class), (16 bytes).
    Removing gt_gif.o(.rodata.str1.1), (35 bytes).
    Removing gt_group.o(.text), (328 bytes).
    Removing gt_group.o(.ARM.exidx), (48 bytes).
    Removing gt_group.o(.rodata.gt_group_class), (16 bytes).
    Removing gt_img.o(.ARM.exidx), (72 bytes).
    Removing gt_imgbtn.o(.ARM.exidx), (112 bytes).
    Removing gt_input.o(.text), (2460 bytes).
    Removing gt_input.o(.ARM.exidx), (224 bytes).
    Removing gt_input.o(.rodata.gt_input_class), (16 bytes).
    Removing gt_input.o(.rodata.str1.1), (37 bytes).
    Removing gt_input_number.o(.text), (2002 bytes).
    Removing gt_input_number.o(.ARM.exidx), (208 bytes).
    Removing gt_input_number.o(.rodata.gt_input_number_class), (16 bytes).
    Removing gt_input_number.o(.rodata.str1.1), (9 bytes).
    Removing gt_keypad.o(.text), (3322 bytes).
    Removing gt_keypad.o(.ARM.exidx), (280 bytes).
    Removing gt_keypad.o(.rodata.gt_keypad_class), (16 bytes).
    Removing gt_keypad.o(.rodata._def_style_list), (168 bytes).
    Removing gt_keypad.o(.rodata._list_default_26_key), (32 bytes).
    Removing gt_keypad.o(.rodata._list_default_tlb), (24 bytes).
    Removing gt_keypad.o(.rodata._list_default_fyb_369), (24 bytes).
    Removing gt_keypad.o(.rodata._low_map_default_26_key), (512 bytes).
    Removing gt_keypad.o(.rodata._up_map_default_26_key), (512 bytes).
    Removing gt_keypad.o(.rodata._symbol_en_map_default_26_key), (496 bytes).
    Removing gt_keypad.o(.rodata._ch_map_default_26_key), (440 bytes).
    Removing gt_keypad.o(.rodata.str1.1), (302 bytes).
    Removing gt_keypad.o(.rodata._gt_spell), (72 bytes).
    Removing gt_keypad.o(.rodata._low_map_default_tlb), (272 bytes).
    Removing gt_keypad.o(.rodata._up_map_default_tlb), (272 bytes).
    Removing gt_keypad.o(.rodata._numb_map_default_tlb), (432 bytes).
    Removing gt_keypad.o(.rodata._low_map_default_fyb_369), (288 bytes).
    Removing gt_keypad.o(.rodata._up_map_default_fyb_369), (288 bytes).
    Removing gt_keypad.o(.rodata._numb_map_default_fyb_369), (384 bytes).
    Removing gt_label.o(.ARM.exidx), (248 bytes).
    Removing gt_line.o(.text), (350 bytes).
    Removing gt_line.o(.ARM.exidx), (64 bytes).
    Removing gt_line.o(.rodata.gt_line_class), (16 bytes).
    Removing gt_listview.o(.text), (6624 bytes).
    Removing gt_listview.o(.ARM.exidx), (384 bytes).
    Removing gt_listview.o(.rodata.gt_listview_class), (16 bytes).
    Removing gt_obj.o(.ARM.exidx), (168 bytes).
    Removing gt_obj_class.o(.ARM.exidx), (64 bytes).
    Removing gt_option.o(.text), (54 bytes).
    Removing gt_option.o(.ARM.exidx), (32 bytes).
    Removing gt_option.o(.rodata.gt_option_class), (16 bytes).
    Removing gt_player.o(.ARM.exidx), (232 bytes).
    Removing gt_progress_bar.o(.text), (1394 bytes).
    Removing gt_progress_bar.o(.ARM.exidx), (112 bytes).
    Removing gt_progress_bar.o(.rodata.gt_progress_bar_class), (16 bytes).
    Removing gt_qrcode.o(.text), (0 bytes).
    Removing gt_radio.o(.text), (1342 bytes).
    Removing gt_radio.o(.ARM.exidx), (160 bytes).
    Removing gt_radio.o(.rodata.gt_radio_class), (16 bytes).
    Removing gt_radio.o(.rodata.str1.1), (37 bytes).
    Removing gt_rect.o(.text), (376 bytes).
    Removing gt_rect.o(.ARM.exidx), (72 bytes).
    Removing gt_rect.o(.rodata.gt_rect_class), (16 bytes).
    Removing gt_roller.o(.text), (4514 bytes).
    Removing gt_roller.o(.ARM.exidx), (240 bytes).
    Removing gt_roller.o(.rodata.gt_roller_class), (16 bytes).
    Removing gt_roller.o(.rodata.str1.1), (38 bytes).
    Removing gt_slider.o(.text), (3804 bytes).
    Removing gt_slider.o(.ARM.exidx), (224 bytes).
    Removing gt_slider.o(.rodata.gt_slider_class), (16 bytes).
    Removing gt_status_bar.o(.text), (6816 bytes).
    Removing gt_status_bar.o(.ARM.exidx), (384 bytes).
    Removing gt_status_bar.o(.rodata.gt_status_bar_class), (16 bytes).
    Removing gt_status_bar.o(.rodata.str1.1), (76 bytes).
    Removing gt_switch.o(.text), (528 bytes).
    Removing gt_switch.o(.ARM.exidx), (56 bytes).
    Removing gt_switch.o(.rodata.gt_switcher_class), (16 bytes).
    Removing gt_switch.o(.rodata.str1.1), (1 bytes).
    Removing gt_template.o(.text), (0 bytes).
    Removing gt_textarea.o(.text), (2026 bytes).
    Removing gt_textarea.o(.ARM.exidx), (200 bytes).
    Removing gt_textarea.o(.rodata.gt_textarea_class), (16 bytes).
    Removing gt_textarea.o(.rodata.str1.1), (40 bytes).
    Removing gt_view_pager.o(.text), (1334 bytes).
    Removing gt_view_pager.o(.ARM.exidx), (96 bytes).
    Removing gt_view_pager.o(.rodata._gt_view_pager_class), (16 bytes).
    Removing gt_wordart.o(.text), (920 bytes).
    Removing gt_wordart.o(.ARM.exidx), (72 bytes).
    Removing gt_wordart.o(.rodata.gt_word_art_class), (16 bytes).
    Removing gt_wordart.o(.rodata.str1.1), (39 bytes).
    Removing gt_init_screen_home.o(.ARM.exidx), (104 bytes).
    Removing gt_ui.o(.ARM.exidx), (8 bytes).
    Removing gt_gui_driver.o(.ARM.exidx), (160 bytes).
    Removing gt_gui_driver.o(.rodata..L__const.GT_Font_Init.uid_key), (10 bytes).
    Removing dcmple.o(.text), (54 bytes).
    Removing dcmplt.o(.text), (54 bytes).
    Removing dcmpge.o(.text), (54 bytes).
    Removing fflti.o(.text), (18 bytes).
    Removing ffixi.o(.text), (50 bytes).
    Removing dfixi.o(.text), (62 bytes).

260 unused section(s) (total 102447 bytes) removed from the image.

==============================================================================

Image Symbol Table

    Local Symbols

    Symbol Name                              Value     Ov Type        Size  Object(Section)

    ../clib/division.s                       0x00000000   Number         0  aeabi_sdiv.o ABSOLUTE
    ../clib/microlib/ctype/tolower.c         0x00000000   Number         0  tolower.o ABSOLUTE
    ../clib/microlib/division.c              0x00000000   Number         0  uidiv.o ABSOLUTE
    ../clib/microlib/division.c              0x00000000   Number         0  uldiv.o ABSOLUTE
    ../clib/microlib/init/entry.s            0x00000000   Number         0  entry.o ABSOLUTE
    ../clib/microlib/init/entry.s            0x00000000   Number         0  entry2.o ABSOLUTE
    ../clib/microlib/init/entry.s            0x00000000   Number         0  entry5.o ABSOLUTE
    ../clib/microlib/init/entry.s            0x00000000   Number         0  entry7a.o ABSOLUTE
    ../clib/microlib/init/entry.s            0x00000000   Number         0  entry7b.o ABSOLUTE
    ../clib/microlib/init/entry.s            0x00000000   Number         0  entry8a.o ABSOLUTE
    ../clib/microlib/init/entry.s            0x00000000   Number         0  entry8b.o ABSOLUTE
    ../clib/microlib/init/entry.s            0x00000000   Number         0  entry9a.o ABSOLUTE
    ../clib/microlib/init/entry.s            0x00000000   Number         0  entry9b.o ABSOLUTE
    ../clib/microlib/init/entry.s            0x00000000   Number         0  entry10a.o ABSOLUTE
    ../clib/microlib/init/entry.s            0x00000000   Number         0  entry10b.o ABSOLUTE
    ../clib/microlib/init/entry.s            0x00000000   Number         0  entry11a.o ABSOLUTE
    ../clib/microlib/init/entry.s            0x00000000   Number         0  entry11b.o ABSOLUTE
    ../clib/microlib/longlong.c              0x00000000   Number         0  llshl.o ABSOLUTE
    ../clib/microlib/longlong.c              0x00000000   Number         0  llushr.o ABSOLUTE
    ../clib/microlib/longlong.c              0x00000000   Number         0  llsshr.o ABSOLUTE
    ../clib/microlib/printf/printf.c         0x00000000   Number         0  printfb.o ABSOLUTE
    ../clib/microlib/printf/printf.c         0x00000000   Number         0  printf0.o ABSOLUTE
    ../clib/microlib/printf/printf.c         0x00000000   Number         0  printf1.o ABSOLUTE
    ../clib/microlib/printf/printf.c         0x00000000   Number         0  printf2.o ABSOLUTE
    ../clib/microlib/printf/printf.c         0x00000000   Number         0  printf3.o ABSOLUTE
    ../clib/microlib/printf/printf.c         0x00000000   Number         0  printf4.o ABSOLUTE
    ../clib/microlib/printf/printf.c         0x00000000   Number         0  printf5.o ABSOLUTE
    ../clib/microlib/printf/printf.c         0x00000000   Number         0  printf6.o ABSOLUTE
    ../clib/microlib/printf/printf.c         0x00000000   Number         0  printf7.o ABSOLUTE
    ../clib/microlib/printf/printf.c         0x00000000   Number         0  printf8.o ABSOLUTE
    ../clib/microlib/printf/printf.c         0x00000000   Number         0  printfa.o ABSOLUTE
    ../clib/microlib/printf/stubs.s          0x00000000   Number         0  printfstubs.o ABSOLUTE
    ../clib/microlib/stdio/puts.c            0x00000000   Number         0  puts.o ABSOLUTE
    ../clib/microlib/stdio/puts.c            0x00000000   Number         0  puts_e.o ABSOLUTE
    ../clib/microlib/stdio/streams.c         0x00000000   Number         0  stdout.o ABSOLUTE
    ../clib/microlib/string/memcmp.c         0x00000000   Number         0  memcmp.o ABSOLUTE
    ../clib/microlib/string/memcpy.c         0x00000000   Number         0  memcpya.o ABSOLUTE
    ../clib/microlib/string/memcpy.c         0x00000000   Number         0  memmovea.o ABSOLUTE
    ../clib/microlib/string/memcpy.c         0x00000000   Number         0  memcpyb.o ABSOLUTE
    ../clib/microlib/string/memcpy.c         0x00000000   Number         0  memmoveb.o ABSOLUTE
    ../clib/microlib/string/memset.c         0x00000000   Number         0  memseta.o ABSOLUTE
    ../clib/microlib/string/strcmp.c         0x00000000   Number         0  strcmp.o ABSOLUTE
    ../clib/microlib/string/strcpy.c         0x00000000   Number         0  strcpy.o ABSOLUTE
    ../clib/microlib/string/strlen.c         0x00000000   Number         0  strlen.o ABSOLUTE
    ../clib/microlib/stubs.s                 0x00000000   Number         0  iusefp.o ABSOLUTE
    ../fplib/microlib/d2f.c                  0x00000000   Number         0  d2f.o ABSOLUTE
    ../fplib/microlib/f2d.c                  0x00000000   Number         0  f2d.o ABSOLUTE
    ../fplib/microlib/fpadd.c                0x00000000   Number         0  dadd.o ABSOLUTE
    ../fplib/microlib/fpcmp.c                0x00000000   Number         0  dcmple.o ABSOLUTE
    ../fplib/microlib/fpcmp.c                0x00000000   Number         0  dcmplt.o ABSOLUTE
    ../fplib/microlib/fpcmp.c                0x00000000   Number         0  dcmpge.o ABSOLUTE
    ../fplib/microlib/fpdiv.c                0x00000000   Number         0  fdiv.o ABSOLUTE
    ../fplib/microlib/fpdiv.c                0x00000000   Number         0  ddiv.o ABSOLUTE
    ../fplib/microlib/fpepilogue.c           0x00000000   Number         0  fepilogue.o ABSOLUTE
    ../fplib/microlib/fpepilogue.c           0x00000000   Number         0  depilogue.o ABSOLUTE
    ../fplib/microlib/fpfix.c                0x00000000   Number         0  ffixi.o ABSOLUTE
    ../fplib/microlib/fpfix.c                0x00000000   Number         0  dfixi.o ABSOLUTE
    ../fplib/microlib/fpfix.c                0x00000000   Number         0  dfixul.o ABSOLUTE
    ../fplib/microlib/fpflt.c                0x00000000   Number         0  fflti.o ABSOLUTE
    ../fplib/microlib/fpflt.c                0x00000000   Number         0  ffltui.o ABSOLUTE
    ../fplib/microlib/fpflt.c                0x00000000   Number         0  dflti.o ABSOLUTE
    ../fplib/microlib/fpflt.c                0x00000000   Number         0  dfltui.o ABSOLUTE
    ../fplib/microlib/fpmul.c                0x00000000   Number         0  fmul.o ABSOLUTE
    ../fplib/microlib/fpmul.c                0x00000000   Number         0  dmul.o ABSOLUTE
    ../mathlib/ceil.c                        0x00000000   Number         0  ceil.o ABSOLUTE
    CSL\CMSIS\DeviceSupport\startup\arm\startup_SWM341.s 0x00000000   Number         0  startup_swm341.o ABSOLUTE
    SWM341_adc.c                             0x00000000   Number         0  swm341_adc.o ABSOLUTE
    SWM341_can.c                             0x00000000   Number         0  swm341_can.o ABSOLUTE
    SWM341_cordic.c                          0x00000000   Number         0  swm341_cordic.o ABSOLUTE
    SWM341_crc.c                             0x00000000   Number         0  swm341_crc.o ABSOLUTE
    SWM341_dac.c                             0x00000000   Number         0  swm341_dac.o ABSOLUTE
    SWM341_div.c                             0x00000000   Number         0  swm341_div.o ABSOLUTE
    SWM341_dma.c                             0x00000000   Number         0  swm341_dma.o ABSOLUTE
    SWM341_dma2d.c                           0x00000000   Number         0  swm341_dma2d.o ABSOLUTE
    SWM341_exti.c                            0x00000000   Number         0  swm341_exti.o ABSOLUTE
    SWM341_flash.c                           0x00000000   Number         0  swm341_flash.o ABSOLUTE
    SWM341_gpio.c                            0x00000000   Number         0  swm341_gpio.o ABSOLUTE
    SWM341_i2c.c                             0x00000000   Number         0  swm341_i2c.o ABSOLUTE
    SWM341_iofilt.c                          0x00000000   Number         0  swm341_iofilt.o ABSOLUTE
    SWM341_jpeg.c                            0x00000000   Number         0  swm341_jpeg.o ABSOLUTE
    SWM341_lcd.c                             0x00000000   Number         0  swm341_lcd.o ABSOLUTE
    SWM341_port.c                            0x00000000   Number         0  swm341_port.o ABSOLUTE
    SWM341_pwm.c                             0x00000000   Number         0  swm341_pwm.o ABSOLUTE
    SWM341_qei.c                             0x00000000   Number         0  swm341_qei.o ABSOLUTE
    SWM341_rtc.c                             0x00000000   Number         0  swm341_rtc.o ABSOLUTE
    SWM341_sdio.c                            0x00000000   Number         0  swm341_sdio.o ABSOLUTE
    SWM341_sdram.c                           0x00000000   Number         0  swm341_sdram.o ABSOLUTE
    SWM341_sfc.c                             0x00000000   Number         0  swm341_sfc.o ABSOLUTE
    SWM341_sleep.c                           0x00000000   Number         0  swm341_sleep.o ABSOLUTE
    SWM341_spi.c                             0x00000000   Number         0  swm341_spi.o ABSOLUTE
    SWM341_timr.c                            0x00000000   Number         0  swm341_timr.o ABSOLUTE
    SWM341_uart.c                            0x00000000   Number         0  swm341_uart.o ABSOLUTE
    SWM341_usbd.c                            0x00000000   Number         0  swm341_usbd.o ABSOLUTE
    SWM341_usbh.c                            0x00000000   Number         0  swm341_usbh.o ABSOLUTE
    SWM341_wdt.c                             0x00000000   Number         0  swm341_wdt.o ABSOLUTE
    bsp_lcd_rgb.c                            0x00000000   Number         0  bsp_lcd_rgb.o ABSOLUTE
    bsp_led.c                                0x00000000   Number         0  bsp_led.o ABSOLUTE
    bsp_sfc.c                                0x00000000   Number         0  bsp_sfc.o ABSOLUTE
    bsp_uart.c                               0x00000000   Number         0  bsp_uart.o ABSOLUTE
    cdrcmple.s                               0x00000000   Number         0  cdrcmple.o ABSOLUTE
    dc.s                                     0x00000000   Number         0  dc.o ABSOLUTE
    dev_dac.c                                0x00000000   Number         0  dev_dac.o ABSOLUTE
    dev_sdio.c                               0x00000000   Number         0  dev_sdio.o ABSOLUTE
    dev_sdram.c                              0x00000000   Number         0  dev_sdram.o ABSOLUTE
    dev_systick.c                            0x00000000   Number         0  dev_systick.o ABSOLUTE
    dev_touch.c                              0x00000000   Number         0  dev_touch.o ABSOLUTE
    gifdec.c                                 0x00000000   Number         0  gifdec.o ABSOLUTE
    gt911.c                                  0x00000000   Number         0  gt911.o ABSOLUTE
    gt_anim.c                                0x00000000   Number         0  gt_anim.o ABSOLUTE
    gt_area.c                                0x00000000   Number         0  gt_area.o ABSOLUTE
    gt_barcode.c                             0x00000000   Number         0  gt_barcode.o ABSOLUTE
    gt_btn.c                                 0x00000000   Number         0  gt_btn.o ABSOLUTE
    gt_btnmap.c                              0x00000000   Number         0  gt_btnmap.o ABSOLUTE
    gt_chat.c                                0x00000000   Number         0  gt_chat.o ABSOLUTE
    gt_checkbox.c                            0x00000000   Number         0  gt_checkbox.o ABSOLUTE
    gt_clock.c                               0x00000000   Number         0  gt_clock.o ABSOLUTE
    gt_color.c                               0x00000000   Number         0  gt_color.o ABSOLUTE
    gt_dialog.c                              0x00000000   Number         0  gt_dialog.o ABSOLUTE
    gt_disp.c                                0x00000000   Number         0  gt_disp.o ABSOLUTE
    gt_draw.c                                0x00000000   Number         0  gt_draw.o ABSOLUTE
    gt_draw_blend.c                          0x00000000   Number         0  gt_draw_blend.o ABSOLUTE
    gt_draw_blend_with_argb888.c             0x00000000   Number         0  gt_draw_blend_with_argb888.o ABSOLUTE
    gt_draw_blend_with_rgb565.c              0x00000000   Number         0  gt_draw_blend_with_rgb565.o ABSOLUTE
    gt_draw_blend_with_rgb888.c              0x00000000   Number         0  gt_draw_blend_with_rgb888.o ABSOLUTE
    gt_effects.c                             0x00000000   Number         0  gt_effects.o ABSOLUTE
    gt_event.c                               0x00000000   Number         0  gt_event.o ABSOLUTE
    gt_extra.c                               0x00000000   Number         0  gt_extra.o ABSOLUTE
    gt_font.c                                0x00000000   Number         0  gt_font.o ABSOLUTE
    gt_fs.c                                  0x00000000   Number         0  gt_fs.o ABSOLUTE
    gt_gc.c                                  0x00000000   Number         0  gt_gc.o ABSOLUTE
    gt_gif.c                                 0x00000000   Number         0  gt_gif.o ABSOLUTE
    gt_graph_base.c                          0x00000000   Number         0  gt_graph_base.o ABSOLUTE
    gt_group.c                               0x00000000   Number         0  gt_group.o ABSOLUTE
    gt_gui_driver.c                          0x00000000   Number         0  gt_gui_driver.o ABSOLUTE
    gt_hal_disp.c                            0x00000000   Number         0  gt_hal_disp.o ABSOLUTE
    gt_hal_file_header.c                     0x00000000   Number         0  gt_hal_file_header.o ABSOLUTE
    gt_hal_fs.c                              0x00000000   Number         0  gt_hal_fs.o ABSOLUTE
    gt_hal_indev.c                           0x00000000   Number         0  gt_hal_indev.o ABSOLUTE
    gt_hal_src.c                             0x00000000   Number         0  gt_hal_src.o ABSOLUTE
    gt_hal_tick.c                            0x00000000   Number         0  gt_hal_tick.o ABSOLUTE
    gt_hal_vf.c                              0x00000000   Number         0  gt_hal_vf.o ABSOLUTE
    gt_handler.c                             0x00000000   Number         0  gt_handler.o ABSOLUTE
    gt_img.c                                 0x00000000   Number         0  gt_img.o ABSOLUTE
    gt_img_decoder.c                         0x00000000   Number         0  gt_img_decoder.o ABSOLUTE
    gt_imgbtn.c                              0x00000000   Number         0  gt_imgbtn.o ABSOLUTE
    gt_indev.c                               0x00000000   Number         0  gt_indev.o ABSOLUTE
    gt_init_screen_home.c                    0x00000000   Number         0  gt_init_screen_home.o ABSOLUTE
    gt_input.c                               0x00000000   Number         0  gt_input.o ABSOLUTE
    gt_input_number.c                        0x00000000   Number         0  gt_input_number.o ABSOLUTE
    gt_keypad.c                              0x00000000   Number         0  gt_keypad.o ABSOLUTE
    gt_label.c                               0x00000000   Number         0  gt_label.o ABSOLUTE
    gt_layout.c                              0x00000000   Number         0  gt_layout.o ABSOLUTE
    gt_line.c                                0x00000000   Number         0  gt_line.o ABSOLUTE
    gt_listview.c                            0x00000000   Number         0  gt_listview.o ABSOLUTE
    gt_ll.c                                  0x00000000   Number         0  gt_ll.o ABSOLUTE
    gt_math.c                                0x00000000   Number         0  gt_math.o ABSOLUTE
    gt_mem.c                                 0x00000000   Number         0  gt_mem.o ABSOLUTE
    gt_obj.c                                 0x00000000   Number         0  gt_obj.o ABSOLUTE
    gt_obj_class.c                           0x00000000   Number         0  gt_obj_class.o ABSOLUTE
    gt_obj_pos.c                             0x00000000   Number         0  gt_obj_pos.o ABSOLUTE
    gt_obj_scroll.c                          0x00000000   Number         0  gt_obj_scroll.o ABSOLUTE
    gt_option.c                              0x00000000   Number         0  gt_option.o ABSOLUTE
    gt_player.c                              0x00000000   Number         0  gt_player.o ABSOLUTE
    gt_png.c                                 0x00000000   Number         0  gt_png.o ABSOLUTE
    gt_port_disp.c                           0x00000000   Number         0  gt_port_disp.o ABSOLUTE
    gt_port_indev.c                          0x00000000   Number         0  gt_port_indev.o ABSOLUTE
    gt_port_src.c                            0x00000000   Number         0  gt_port_src.o ABSOLUTE
    gt_port_vf.c                             0x00000000   Number         0  gt_port_vf.o ABSOLUTE
    gt_progress_bar.c                        0x00000000   Number         0  gt_progress_bar.o ABSOLUTE
    gt_qrcode.c                              0x00000000   Number         0  gt_qrcode.o ABSOLUTE
    gt_radio.c                               0x00000000   Number         0  gt_radio.o ABSOLUTE
    gt_rect.c                                0x00000000   Number         0  gt_rect.o ABSOLUTE
    gt_refr.c                                0x00000000   Number         0  gt_refr.o ABSOLUTE
    gt_roller.c                              0x00000000   Number         0  gt_roller.o ABSOLUTE
    gt_scr_stack.c                           0x00000000   Number         0  gt_scr_stack.o ABSOLUTE
    gt_sjpg.c                                0x00000000   Number         0  gt_sjpg.o ABSOLUTE
    gt_slider.c                              0x00000000   Number         0  gt_slider.o ABSOLUTE
    gt_stack.c                               0x00000000   Number         0  gt_stack.o ABSOLUTE
    gt_status_bar.c                          0x00000000   Number         0  gt_status_bar.o ABSOLUTE
    gt_style.c                               0x00000000   Number         0  gt_style.o ABSOLUTE
    gt_switch.c                              0x00000000   Number         0  gt_switch.o ABSOLUTE
    gt_symbol.c                              0x00000000   Number         0  gt_symbol.o ABSOLUTE
    gt_template.c                            0x00000000   Number         0  gt_template.o ABSOLUTE
    gt_textarea.c                            0x00000000   Number         0  gt_textarea.o ABSOLUTE
    gt_timer.c                               0x00000000   Number         0  gt_timer.o ABSOLUTE
    gt_tlsf.c                                0x00000000   Number         0  gt_tlsf.o ABSOLUTE
    gt_txt.c                                 0x00000000   Number         0  gt_txt.o ABSOLUTE
    gt_ui.c                                  0x00000000   Number         0  gt_ui.o ABSOLUTE
    gt_vector.c                              0x00000000   Number         0  gt_vector.o ABSOLUTE
    gt_view_pager.c                          0x00000000   Number         0  gt_view_pager.o ABSOLUTE
    gt_wordart.c                             0x00000000   Number         0  gt_wordart.o ABSOLUTE
    handlers.s                               0x00000000   Number         0  handlers.o ABSOLUTE
    init.s                                   0x00000000   Number         0  init.o ABSOLUTE
    lodepng.c                                0x00000000   Number         0  lodepng.o ABSOLUTE
    main.c                                   0x00000000   Number         0  main.o ABSOLUTE
    system_SWM341.c                          0x00000000   Number         0  system_swm341.o ABSOLUTE
    tjpgd.c                                  0x00000000   Number         0  tjpgd.o ABSOLUTE
    RESET                                    0x00020000   Section      424  startup_swm341.o(RESET)
    .ARM.Collect$$$$00000000                 0x000201a8   Section        0  entry.o(.ARM.Collect$$$$00000000)
    .ARM.Collect$$$$00000001                 0x000201a8   Section        4  entry2.o(.ARM.Collect$$$$00000001)
    .ARM.Collect$$$$00000004                 0x000201ac   Section        4  entry5.o(.ARM.Collect$$$$00000004)
    .ARM.Collect$$$$00000008                 0x000201b0   Section        0  entry7b.o(.ARM.Collect$$$$00000008)
    .ARM.Collect$$$$0000000A                 0x000201b0   Section        0  entry8b.o(.ARM.Collect$$$$0000000A)
    .ARM.Collect$$$$0000000B                 0x000201b0   Section        8  entry9a.o(.ARM.Collect$$$$0000000B)
    __lit__00000000                          0x000201b8   Data           4  entry2.o(.ARM.Collect$$$$00002712)
    .ARM.Collect$$$$0000000D                 0x000201b8   Section        0  entry10a.o(.ARM.Collect$$$$0000000D)
    .ARM.Collect$$$$0000000F                 0x000201b8   Section        0  entry11a.o(.ARM.Collect$$$$0000000F)
    .ARM.Collect$$$$00002712                 0x000201b8   Section        4  entry2.o(.ARM.Collect$$$$00002712)
    [Anonymous Symbol]                       0x000201bc   Section        0  main.o(.text)
    [Anonymous Symbol]                       0x000203e8   Section        0  bsp_lcd_rgb.o(.text)
    [Anonymous Symbol]                       0x000209bc   Section        0  bsp_sfc.o(.text)
    [Anonymous Symbol]                       0x00020f8c   Section        0  bsp_uart.o(.text)
    [Anonymous Symbol]                       0x00021174   Section        0  dev_systick.o(.text)
    [Anonymous Symbol]                       0x00021278   Section        0  dev_touch.o(.text)
    [Anonymous Symbol]                       0x000212f4   Section        0  gt911.o(.text)
    [Anonymous Symbol]                       0x00021924   Section        0  system_swm341.o(.text)
    .text                                    0x00022a1c   Section      216  startup_swm341.o(.text)
    [Anonymous Symbol]                       0x00022af4   Section        0  swm341_exti.o(.text)
    [Anonymous Symbol]                       0x00022b94   Section        0  swm341_flash.o(.text)
    [Anonymous Symbol]                       0x00022cd4   Section        0  swm341_gpio.o(.text)
    [Anonymous Symbol]                       0x00022f6c   Section        0  swm341_i2c.o(.text)
    [Anonymous Symbol]                       0x00023278   Section        0  swm341_lcd.o(.text)
    [Anonymous Symbol]                       0x00023594   Section        0  swm341_port.o(.text)
    [Anonymous Symbol]                       0x000235e0   Section        0  swm341_sdram.o(.text)
    [Anonymous Symbol]                       0x00023868   Section        0  swm341_sfc.o(.text)
    [Anonymous Symbol]                       0x00023e40   Section        0  swm341_timr.o(.text)
    [Anonymous Symbol]                       0x000249a0   Section        0  swm341_uart.o(.text)
    [Anonymous Symbol]                       0x00024d10   Section        0  swm341_wdt.o(.text)
    [Anonymous Symbol]                       0x00024db0   Section        0  gt_port_disp.o(.text)
    [Anonymous Symbol]                       0x00024df8   Section        0  gt_port_indev.o(.text)
    [Anonymous Symbol]                       0x00024e40   Section        0  gt_port_src.o(.text)
    [Anonymous Symbol]                       0x00024e50   Section        0  gt_port_vf.o(.text)
    [Anonymous Symbol]                       0x00024e70   Section        0  gt_disp.o(.text)
    _scr_anim_del_ready_cb                   0x00026009   Thumb Code    20  gt_disp.o(.text)
    _old_scr_anim_ready_cb                   0x0002601d   Thumb Code    88  gt_disp.o(.text)
    _scr_anim_start_cb                       0x00026095   Thumb Code    32  gt_disp.o(.text)
    _scr_anim_ready_cb                       0x000260b5   Thumb Code   148  gt_disp.o(.text)
    _scr_anim_exec_x_cb                      0x0002615d   Thumb Code     6  gt_disp.o(.text)
    _scr_anim_exec_y_cb                      0x00026165   Thumb Code     6  gt_disp.o(.text)
    _gt_disp_check_and_copy_foreach          0x0002631d   Thumb Code   170  gt_disp.o(.text)
    _check_and_copy_foreach                  0x000263c9   Thumb Code   230  gt_disp.o(.text)
    [Anonymous Symbol]                       0x000264b0   Section        0  gt_draw.o(.text)
    _gt_radius_mask_init                     0x000275f9   Thumb Code  1252  gt_draw.o(.text)
    _gt_get_radius_mask_buf                  0x00027b59   Thumb Code  1428  gt_draw.o(.text)
    _draw_text_convertor_split               0x000299c1   Thumb Code  1300  gt_draw.o(.text)
    [Anonymous Symbol]                       0x00029ed4   Section        0  gt_event.o(.text)
    [Anonymous Symbol]                       0x0002a1ec   Section        0  gt_fs.o(.text)
    [Anonymous Symbol]                       0x0002a4f8   Section        0  gt_graph_base.o(.text)
    [Anonymous Symbol]                       0x0002a58c   Section        0  gt_handler.o(.text)
    [Anonymous Symbol]                       0x0002a5e0   Section        0  gt_img_decoder.o(.text)
    _gt_img_decoder_built_in_info            0x0002a67d   Thumb Code    58  gt_img_decoder.o(.text)
    _gt_img_decoder_built_in_open            0x0002a6bd   Thumb Code    58  gt_img_decoder.o(.text)
    _gt_img_decoder_built_in_read_line       0x0002a6fd   Thumb Code    86  gt_img_decoder.o(.text)
    _gt_img_decoder_built_in_close           0x0002a759   Thumb Code    12  gt_img_decoder.o(.text)
    [Anonymous Symbol]                       0x0002a994   Section        0  gt_indev.o(.text)
    _indev_scroll_throw_exec_cb              0x0002b1b1   Thumb Code   626  gt_indev.o(.text)
    _indev_scroll_throw_ready_cb             0x0002b425   Thumb Code    10  gt_indev.o(.text)
    _absorb_handler                          0x0002b431   Thumb Code   314  gt_indev.o(.text)
    [Anonymous Symbol]                       0x0002b56c   Section        0  gt_layout.o(.text)
    _row_grow_inside_invert                  0x0002b629   Thumb Code   140  gt_layout.o(.text)
    _row_grow_inside                         0x0002b6b5   Thumb Code   140  gt_layout.o(.text)
    [Anonymous Symbol]                       0x0002b740   Section        0  gt_mem.o(.text)
    [Anonymous Symbol]                       0x0002b8a4   Section        0  gt_obj_pos.o(.text)
    _gt_obj_foreach_clicked                  0x0002b8dd   Thumb Code   272  gt_obj_pos.o(.text)
    _gt_obj_next_focus_get                   0x0002ba85   Thumb Code    84  gt_obj_pos.o(.text)
    [Anonymous Symbol]                       0x0002bc40   Section        0  gt_obj_scroll.o(.text)
    _scroll_by_x                             0x0002bdd5   Thumb Code    12  gt_obj_scroll.o(.text)
    _scroll_by_y                             0x0002bde1   Thumb Code    12  gt_obj_scroll.o(.text)
    [Anonymous Symbol]                       0x0002be28   Section        0  gt_refr.o(.text)
    [Anonymous Symbol]                       0x0002bea0   Section        0  gt_scr_stack.o(.text)
    _equal_current_id_cb                     0x0002c435   Thumb Code    14  gt_scr_stack.o(.text)
    _free_alive_scr_object_cb                0x0002c499   Thumb Code    84  gt_scr_stack.o(.text)
    [Anonymous Symbol]                       0x0002c51c   Section        0  gt_style.o(.text)
    _update_layer_top_widget_area            0x0002c60d   Thumb Code   332  gt_style.o(.text)
    [Anonymous Symbol]                       0x0002e0f0   Section        0  gt_timer.o(.text)
    [Anonymous Symbol]                       0x0002e620   Section        0  gt_extra.o(.text)
    [Anonymous Symbol]                       0x0002e630   Section        0  gt_draw_blend.o(.text)
    [Anonymous Symbol]                       0x0002edd0   Section        0  gt_draw_blend_with_rgb565.o(.text)
    [Anonymous Symbol]                       0x0002fe10   Section        0  gt_sjpg.o(.text)
    _gt_sjpg_info                            0x0002fe59   Thumb Code   460  gt_sjpg.o(.text)
    _gt_sjpg_open                            0x00030039   Thumb Code   714  gt_sjpg.o(.text)
    _gt_sjpg_read_line                       0x00030305   Thumb Code   152  gt_sjpg.o(.text)
    _gt_sjpg_close                           0x0003039d   Thumb Code    30  gt_sjpg.o(.text)
    input_func                               0x000303bd   Thumb Code    60  gt_sjpg.o(.text)
    _sjpg_free                               0x000303f9   Thumb Code   118  gt_sjpg.o(.text)
    output_func                              0x00030471   Thumb Code   126  gt_sjpg.o(.text)
    [Anonymous Symbol]                       0x000304f0   Section        0  tjpgd.o(.text)
    huffext                                  0x00033035   Thumb Code  1778  tjpgd.o(.text)
    [Anonymous Symbol]                       0x00033728   Section        0  gt_png.o(.text)
    _gt_png_info                             0x00033771   Thumb Code   236  gt_png.o(.text)
    _gt_png_open                             0x0003385d   Thumb Code   780  gt_png.o(.text)
    _gt_png_read_line                        0x00033bb1   Thumb Code    32  gt_png.o(.text)
    _gt_png_close                            0x00033bd1   Thumb Code    68  gt_png.o(.text)
    [Anonymous Symbol]                       0x00033c14   Section        0  lodepng.o(.text)
    lodepng_inflatev                         0x00033d3d   Thumb Code  5188  lodepng.o(.text)
    lodepng_zlib_decompressv                 0x000351ad   Thumb Code   382  lodepng.o(.text)
    lodepng_add_text_sized                   0x00036095   Thumb Code   312  lodepng.o(.text)
    LodePNGText_cleanup                      0x000361d1   Thumb Code   122  lodepng.o(.text)
    LodePNGIText_cleanup                     0x00036251   Thumb Code   198  lodepng.o(.text)
    lodepng_add_itext_sized                  0x00036369   Thumb Code   602  lodepng.o(.text)
    color_tree_cleanup                       0x00039461   Thumb Code   430  lodepng.o(.text)
    readChunk_PLTE                           0x00039f4d   Thumb Code   358  lodepng.o(.text)
    readChunk_tEXt                           0x0003a0b5   Thumb Code   332  lodepng.o(.text)
    readChunk_zTXt                           0x0003a201   Thumb Code   432  lodepng.o(.text)
    readChunk_iTXt                           0x0003a3b1   Thumb Code   846  lodepng.o(.text)
    readChunk_cHRM                           0x0003a701   Thumb Code    82  lodepng.o(.text)
    readChunk_iCCP                           0x0003a755   Thumb Code   558  lodepng.o(.text)
    readChunk_sBIT                           0x0003a985   Thumb Code   308  lodepng.o(.text)
    HuffmanTree_makeFromLengths              0x0003ca61   Thumb Code  2794  lodepng.o(.text)
    unfilter                                 0x0003d54d   Thumb Code  3916  lodepng.o(.text)
    Adam7_getpassvalues                      0x0003e499   Thumb Code   798  lodepng.o(.text)
    [Anonymous Symbol]                       0x0003e7b8   Section        0  gt_font.o(.text)
    _gt_font_lang_and_punctuation_split      0x00040a6d   Thumb Code   486  gt_font.o(.text)
    _is_punctuation                          0x00040c55   Thumb Code    46  gt_font.o(.text)
    [Anonymous Symbol]                       0x00040cac   Section        0  gt_symbol.o(.text)
    [Anonymous Symbol]                       0x00040d38   Section        0  gt_hal_disp.o(.text)
    _gt_disp_task_handler                    0x00040e95   Thumb Code     4  gt_hal_disp.o(.text)
    _calc_max_area_recursive                 0x000411e5   Thumb Code   476  gt_hal_disp.o(.text)
    [Anonymous Symbol]                       0x0004145c   Section        0  gt_hal_fs.o(.text)
    [Anonymous Symbol]                       0x00041500   Section        0  gt_hal_indev.o(.text)
    [Anonymous Symbol]                       0x000415f8   Section        0  gt_hal_src.o(.text)
    _open_cb                                 0x0004167d   Thumb Code   192  gt_hal_src.o(.text)
    _close_cb                                0x00041789   Thumb Code    34  gt_hal_src.o(.text)
    _read_cb                                 0x000417ad   Thumb Code    50  gt_hal_src.o(.text)
    _seek_cb                                 0x000417e1   Thumb Code    44  gt_hal_src.o(.text)
    _tell_cb                                 0x0004180d   Thumb Code    12  gt_hal_src.o(.text)
    [Anonymous Symbol]                       0x00041818   Section        0  gt_hal_tick.o(.text)
    [Anonymous Symbol]                       0x0004188c   Section        0  gt_hal_vf.o(.text)
    _open_cb                                 0x00041945   Thumb Code   184  gt_hal_vf.o(.text)
    _close_cb                                0x00041a49   Thumb Code    38  gt_hal_vf.o(.text)
    _read_cb                                 0x00041a71   Thumb Code   188  gt_hal_vf.o(.text)
    _write_cb                                0x00041b2d   Thumb Code    46  gt_hal_vf.o(.text)
    _seek_cb                                 0x00041b5d   Thumb Code    50  gt_hal_vf.o(.text)
    _tell_cb                                 0x00041b91   Thumb Code    20  gt_hal_vf.o(.text)
    [Anonymous Symbol]                       0x00041ba4   Section        0  gt_anim.o(.text)
    _default_exec_cb                         0x00041d05   Thumb Code    70  gt_anim.o(.text)
    _gt_anim_task_handler                    0x00041f35   Thumb Code   432  gt_anim.o(.text)
    _gt_anim_path_linear                     0x000420e5   Thumb Code    44  gt_anim.o(.text)
    _gt_anim_path_ease_in                    0x00042309   Thumb Code    64  gt_anim.o(.text)
    _gt_anim_path_ease_out                   0x00042349   Thumb Code    64  gt_anim.o(.text)
    _gt_anim_path_ease_in_out                0x00042389   Thumb Code    66  gt_anim.o(.text)
    _gt_anim_path_overshoot                  0x000423cd   Thumb Code    68  gt_anim.o(.text)
    _gt_anim_path_bounce                     0x00042411   Thumb Code   264  gt_anim.o(.text)
    [Anonymous Symbol]                       0x00042518   Section        0  gt_area.o(.text)
    [Anonymous Symbol]                       0x000427c4   Section        0  gt_color.o(.text)
    [Anonymous Symbol]                       0x00042868   Section        0  gt_gc.o(.text)
    [Anonymous Symbol]                       0x00042890   Section        0  gt_math.o(.text)
    [Anonymous Symbol]                       0x00042a10   Section        0  gt_tlsf.o(.text)
    default_walker                           0x00042c41   Thumb Code    40  gt_tlsf.o(.text)
    block_locate_free                        0x0004302d   Thumb Code   218  gt_tlsf.o(.text)
    block_prepare_used                       0x00043109   Thumb Code   244  gt_tlsf.o(.text)
    [Anonymous Symbol]                       0x00043794   Section        0  gt_stack.o(.text)
    [Anonymous Symbol]                       0x00043c10   Section        0  gt_vector.o(.text)
    _default_equal_cb                        0x00043c85   Thumb Code    14  gt_vector.o(.text)
    _init_cb                                 0x00043ff9   Thumb Code   358  gt_btn.o(.text)
    [Anonymous Symbol]                       0x00043ff8   Section        0  gt_btn.o(.text)
    _deinit_cb                               0x00044161   Thumb Code    44  gt_btn.o(.text)
    _event_cb                                0x0004418d   Thumb Code   154  gt_btn.o(.text)
    _contents_equal_cb                       0x000442bd   Thumb Code    14  gt_btn.o(.text)
    _press_btn_handler                       0x00044661   Thumb Code   116  gt_btn.o(.text)
    _init_cb                                 0x000446d5   Thumb Code    80  gt_dialog.o(.text)
    [Anonymous Symbol]                       0x000446d4   Section        0  gt_dialog.o(.text)
    _deinit_cb                               0x00044725   Thumb Code     2  gt_dialog.o(.text)
    _event_cb                                0x00044729   Thumb Code   348  gt_dialog.o(.text)
    _find_showing_recursive_by_type          0x00044be1   Thumb Code    78  gt_dialog.o(.text)
    _close_release_cb                        0x00044f05   Thumb Code    10  gt_dialog.o(.text)
    _dialog_anim_exec_cb                     0x00044f11   Thumb Code    26  gt_dialog.o(.text)
    _dialog_show_anim_start_cb               0x00044f2d   Thumb Code    14  gt_dialog.o(.text)
    _dialog_close_anim_ready_cb              0x00044f3d   Thumb Code    28  gt_dialog.o(.text)
    _init_cb                                 0x00044f59   Thumb Code    68  gt_img.o(.text)
    [Anonymous Symbol]                       0x00044f58   Section        0  gt_img.o(.text)
    _deinit_cb                               0x00044f9d   Thumb Code    68  gt_img.o(.text)
    _event_cb                                0x0004502d   Thumb Code   130  gt_img.o(.text)
    _init_cb                                 0x00045259   Thumb Code    80  gt_imgbtn.o(.text)
    [Anonymous Symbol]                       0x00045258   Section        0  gt_imgbtn.o(.text)
    _deinit_cb                               0x000452a9   Thumb Code    66  gt_imgbtn.o(.text)
    _event_cb                                0x000452ed   Thumb Code   256  gt_imgbtn.o(.text)
    _imgs_free_cb                            0x0004542d   Thumb Code    30  gt_imgbtn.o(.text)
    _imgs_equal_cb                           0x0004544d   Thumb Code    18  gt_imgbtn.o(.text)
    _init_cb                                 0x000456f5   Thumb Code   368  gt_label.o(.text)
    [Anonymous Symbol]                       0x000456f4   Section        0  gt_label.o(.text)
    _deinit_cb                               0x00045865   Thumb Code    72  gt_label.o(.text)
    _event_cb                                0x000458ad   Thumb Code    46  gt_label.o(.text)
    _auto_scroll_exec_cb                     0x00045fc9   Thumb Code    22  gt_label.o(.text)
    [Anonymous Symbol]                       0x00045fe0   Section        0  gt_obj.o(.text)
    _find_obj_recursive_by_id                0x0004615d   Thumb Code    58  gt_obj.o(.text)
    _init_cb                                 0x0004661d   Thumb Code   354  gt_obj.o(.text)
    _obj_event_cb                            0x00046781   Thumb Code   220  gt_obj.o(.text)
    _screen_event_cb                         0x0004685d   Thumb Code   328  gt_obj.o(.text)
    [Anonymous Symbol]                       0x000469a4   Section        0  gt_obj_class.o(.text)
    _destroy_and_free_children               0x00046e71   Thumb Code   310  gt_obj_class.o(.text)
    _init_cb                                 0x00047015   Thumb Code   100  gt_player.o(.text)
    [Anonymous Symbol]                       0x00047014   Section        0  gt_player.o(.text)
    _deinit_cb                               0x00047079   Thumb Code   170  gt_player.o(.text)
    _event_cb                                0x00047125   Thumb Code    28  gt_player.o(.text)
    _auto_play_callback                      0x00047189   Thumb Code   132  gt_player.o(.text)
    _remove_item                             0x0004736d   Thumb Code   212  gt_player.o(.text)
    _turn_next_item                          0x00047985   Thumb Code   290  gt_player.o(.text)
    _turn_prev_item                          0x00047aa9   Thumb Code   286  gt_player.o(.text)
    [Anonymous Symbol]                       0x00047bc8   Section        0  gt_init_screen_home.o(.text)
    imgbtn1_0_cb                             0x000483d9   Thumb Code    14  gt_init_screen_home.o(.text)
    imgbtn1_1_cb                             0x000483e9   Thumb Code    14  gt_init_screen_home.o(.text)
    imgbtn2_0_cb                             0x000483f9   Thumb Code    14  gt_init_screen_home.o(.text)
    imgbtn2_1_cb                             0x00048409   Thumb Code    14  gt_init_screen_home.o(.text)
    imgbtn5_0_cb                             0x00048419   Thumb Code    14  gt_init_screen_home.o(.text)
    imgbtn5_1_cb                             0x00048429   Thumb Code    14  gt_init_screen_home.o(.text)
    imgbtn6_0_cb                             0x00048439   Thumb Code    14  gt_init_screen_home.o(.text)
    imgbtn6_1_cb                             0x00048449   Thumb Code    14  gt_init_screen_home.o(.text)
    imgbtn10_0_cb                            0x00048459   Thumb Code    14  gt_init_screen_home.o(.text)
    imgbtn11_0_cb                            0x00048469   Thumb Code    14  gt_init_screen_home.o(.text)
    imgbtn12_0_cb                            0x00048479   Thumb Code    14  gt_init_screen_home.o(.text)
    imgbtn13_0_cb                            0x00048489   Thumb Code    14  gt_init_screen_home.o(.text)
    [Anonymous Symbol]                       0x00048498   Section        0  gt_ui.o(.text)
    [Anonymous Symbol]                       0x000484bc   Section        0  gt_gui_driver.o(.text)
    MD5Init                                  0x00048601   Thumb Code    48  gt_gui_driver.o(.text)
    MD5Update                                0x00048631   Thumb Code   146  gt_gui_driver.o(.text)
    MD5Final                                 0x000486c5   Thumb Code    84  gt_gui_driver.o(.text)
    GB2312Offset                             0x0004882d   Thumb Code    88  gt_gui_driver.o(.text)
    MD5Transform                             0x00048a29   Thumb Code  1876  gt_gui_driver.o(.text)
    MD5Decode                                0x0004917d   Thumb Code    24  gt_gui_driver.o(.text)
    MD5Encode                                0x00049195   Thumb Code    58  gt_gui_driver.o(.text)
    .text                                    0x000491ce   Section        0  tolower.o(.text)
    .text                                    0x000491da   Section        0  memmovea.o(.text)
    .text                                    0x0004921a   Section        0  memseta.o(.text)
    .text                                    0x0004923e   Section        0  strlen.o(.text)
    .text                                    0x0004924c   Section        0  strcmp.o(.text)
    .text                                    0x00049268   Section        0  memcmp.o(.text)
    .text                                    0x00049282   Section        0  strcpy.o(.text)
    .text                                    0x00049294   Section        0  fmul.o(.text)
    .text                                    0x000492f8   Section        0  fdiv.o(.text)
    .text                                    0x00049374   Section        0  dadd.o(.text)
    .text                                    0x000494c2   Section        0  dmul.o(.text)
    .text                                    0x000495a6   Section        0  ddiv.o(.text)
    .text                                    0x00049684   Section        0  ffltui.o(.text)
    .text                                    0x0004968e   Section        0  dflti.o(.text)
    .text                                    0x000496b0   Section        0  dfltui.o(.text)
    .text                                    0x000496ca   Section        0  f2d.o(.text)
    .text                                    0x000496f0   Section        0  d2f.o(.text)
    .text                                    0x00049728   Section        0  uidiv.o(.text)
    .text                                    0x00049754   Section        0  uldiv.o(.text)
    .text                                    0x000497b6   Section        0  llshl.o(.text)
    .text                                    0x000497d4   Section        0  llushr.o(.text)
    .text                                    0x000497f4   Section        0  llsshr.o(.text)
    .text                                    0x00049818   Section        0  iusefp.o(.text)
    .text                                    0x00049818   Section        0  fepilogue.o(.text)
    .text                                    0x00049886   Section        0  depilogue.o(.text)
    .text                                    0x00049940   Section        0  dfixul.o(.text)
    .text                                    0x00049970   Section       48  cdrcmple.o(.text)
    .text                                    0x000499a0   Section       36  init.o(.text)
    i.__0printf                              0x000499c4   Section        0  printfa.o(i.__0printf)
    i.__0vsnprintf                           0x000499e4   Section        0  printfa.o(i.__0vsnprintf)
    i.__scatterload_copy                     0x00049a18   Section       14  handlers.o(i.__scatterload_copy)
    i.__scatterload_null                     0x00049a26   Section        2  handlers.o(i.__scatterload_null)
    i.__scatterload_zeroinit                 0x00049a28   Section       14  handlers.o(i.__scatterload_zeroinit)
    _fp_digits                               0x00049a39   Thumb Code   366  printfa.o(i._fp_digits)
    i._fp_digits                             0x00049a38   Section        0  printfa.o(i._fp_digits)
    _printf_core                             0x00049bbd   Thumb Code  1744  printfa.o(i._printf_core)
    i._printf_core                           0x00049bbc   Section        0  printfa.o(i._printf_core)
    _printf_post_padding                     0x0004a299   Thumb Code    36  printfa.o(i._printf_post_padding)
    i._printf_post_padding                   0x0004a298   Section        0  printfa.o(i._printf_post_padding)
    _printf_pre_padding                      0x0004a2bd   Thumb Code    46  printfa.o(i._printf_pre_padding)
    i._printf_pre_padding                    0x0004a2bc   Section        0  printfa.o(i._printf_pre_padding)
    _snputc                                  0x0004a2eb   Thumb Code    22  printfa.o(i._snputc)
    i._snputc                                0x0004a2ea   Section        0  printfa.o(i._snputc)
    i.puts                                   0x0004a300   Section        0  puts.o(i.puts)
    .Lswitch.table.gt_anim_set_path_type     0x0004a324   Data          20  gt_anim.o(.rodata..Lswitch.table.gt_anim_set_path_type)
    .Lswitch.table.lodepng_error_text        0x0004a338   Data         464  lodepng.o(.rodata..Lswitch.table.lodepng_error_text)
    ADAM7_DX                                 0x0004a508   Data          28  lodepng.o(.rodata.ADAM7_DX)
    [Anonymous Symbol]                       0x0004a508   Section        0  lodepng.o(.rodata.ADAM7_DX)
    ADAM7_DY                                 0x0004a524   Data          28  lodepng.o(.rodata.ADAM7_DY)
    [Anonymous Symbol]                       0x0004a524   Section        0  lodepng.o(.rodata.ADAM7_DY)
    ADAM7_IX                                 0x0004a540   Data          28  lodepng.o(.rodata.ADAM7_IX)
    [Anonymous Symbol]                       0x0004a540   Section        0  lodepng.o(.rodata.ADAM7_IX)
    ADAM7_IY                                 0x0004a55c   Data          28  lodepng.o(.rodata.ADAM7_IY)
    [Anonymous Symbol]                       0x0004a55c   Section        0  lodepng.o(.rodata.ADAM7_IY)
    CLCL_ORDER                               0x0004a578   Data          76  lodepng.o(.rodata.CLCL_ORDER)
    [Anonymous Symbol]                       0x0004a578   Section        0  lodepng.o(.rodata.CLCL_ORDER)
    Clip8                                    0x0004a5c4   Data        1024  tjpgd.o(.rodata.Clip8)
    [Anonymous Symbol]                       0x0004a5c4   Section        0  tjpgd.o(.rodata.Clip8)
    DISTANCEBASE                             0x0004a9c4   Data         120  lodepng.o(.rodata.DISTANCEBASE)
    [Anonymous Symbol]                       0x0004a9c4   Section        0  lodepng.o(.rodata.DISTANCEBASE)
    DISTANCEEXTRA                            0x0004aa3c   Data         120  lodepng.o(.rodata.DISTANCEEXTRA)
    [Anonymous Symbol]                       0x0004aa3c   Section        0  lodepng.o(.rodata.DISTANCEEXTRA)
    Ipsf                                     0x0004aab4   Data         128  tjpgd.o(.rodata.Ipsf)
    [Anonymous Symbol]                       0x0004aab4   Section        0  tjpgd.o(.rodata.Ipsf)
    LENGTHBASE                               0x0004ab34   Data         116  lodepng.o(.rodata.LENGTHBASE)
    [Anonymous Symbol]                       0x0004ab34   Section        0  lodepng.o(.rodata.LENGTHBASE)
    LENGTHEXTRA                              0x0004aba8   Data         116  lodepng.o(.rodata.LENGTHEXTRA)
    [Anonymous Symbol]                       0x0004aba8   Section        0  lodepng.o(.rodata.LENGTHEXTRA)
    Zig                                      0x0004ac1c   Data          64  tjpgd.o(.rodata.Zig)
    [Anonymous Symbol]                       0x0004ac1c   Section        0  tjpgd.o(.rodata.Zig)
    _ascii_16                                0x0004ac5c   Data        3040  gt_font.o(.rodata._ascii_16)
    [Anonymous Symbol]                       0x0004ac5c   Section        0  gt_font.o(.rodata._ascii_16)
    _gt_sin_90_table                         0x0004b83c   Data         182  gt_math.o(.rodata._gt_sin_90_table)
    [Anonymous Symbol]                       0x0004b83c   Section        0  gt_math.o(.rodata._gt_sin_90_table)
    _gt_tab_per_255                          0x0004b8f4   Data        1024  gt_math.o(.rodata._gt_tab_per_255)
    [Anonymous Symbol]                       0x0004b8f4   Section        0  gt_math.o(.rodata._gt_tab_per_255)
    _latin_16x16_width                       0x0004bcf4   Data         490  gt_font.o(.rodata._latin_16x16_width)
    [Anonymous Symbol]                       0x0004bcf4   Section        0  gt_font.o(.rodata._latin_16x16_width)
    _src_icon_sys                            0x0004bee0   Data          20  gt_port_src.o(.rodata._src_icon_sys)
    [Anonymous Symbol]                       0x0004bee0   Section        0  gt_port_src.o(.rodata._src_icon_sys)
    _utf8_dots                               0x0004bef4   Data           3  gt_draw.o(.rodata._utf8_dots)
    [Anonymous Symbol]                       0x0004bef4   Section        0  gt_draw.o(.rodata._utf8_dots)
    _utf8_full_stops                         0x0004bef7   Data           9  gt_draw.o(.rodata._utf8_full_stops)
    [Anonymous Symbol]                       0x0004bef7   Section        0  gt_draw.o(.rodata._utf8_full_stops)
    .L__const._gt_indev_handler_keypad.data_indev 0x0004bf00   Data          16  gt_indev.o(.rodata.cst16)
    .L__const.gt_disp_stack_push_scr_only_st.ret 0x0004bf10   Data          32  gt_disp.o(.rodata.cst32)
    .Lswitch.table.lodepng_decode.127        0x0004bf30   Data          32  lodepng.o(.rodata.cst32)
    _drive_label                             0x0004bf50   Data           4  gt_fs.o(.rodata.cst4)
    [Anonymous Symbol]                       0x0004bf50   Section        0  gt_fs.o(.rodata.cst4)
    .L__const._gt_obj_foreach_clicked.obj_clicked 0x0004bf54   Data           8  gt_obj_pos.o(.rodata.cst8)
    .L__const.gt_stack_search_item_from_bottom.ret 0x0004bf60   Data           8  gt_stack.o(.rodata.cst8)
    gt_layer_top_class                       0x0004bfc4   Data          16  gt_hal_disp.o(.rodata.gt_layer_top_class)
    [Anonymous Symbol]                       0x0004bfc4   Section        0  gt_hal_disp.o(.rodata.gt_layer_top_class)
    gt_obj_class                             0x0004bfd4   Data          16  gt_obj.o(.rodata.gt_obj_class)
    [Anonymous Symbol]                       0x0004bfd4   Section        0  gt_obj.o(.rodata.gt_obj_class)
    gt_scr_list                              0x0004bff4   Data           8  gt_ui.o(.rodata.gt_scr_list)
    [Anonymous Symbol]                       0x0004bff4   Section        0  gt_ui.o(.rodata.gt_scr_list)
    gt_screen_class                          0x0004bffc   Data          16  gt_obj.o(.rodata.gt_screen_class)
    [Anonymous Symbol]                       0x0004bffc   Section        0  gt_obj.o(.rodata.gt_screen_class)
    gtuid                                    0x0004c00c   Data         560  gt_gui_driver.o(.rodata.gtuid)
    [Anonymous Symbol]                       0x0004c00c   Section        0  gt_gui_driver.o(.rodata.gtuid)
    lodepng_crc32_table                      0x0004c23c   Data        1024  lodepng.o(.rodata.lodepng_crc32_table)
    [Anonymous Symbol]                       0x0004c23c   Section        0  lodepng.o(.rodata.lodepng_crc32_table)
    r_1                                      0x0004c63c   Data          12  gt_draw.o(.rodata.r_1)
    [Anonymous Symbol]                       0x0004c63c   Section        0  gt_draw.o(.rodata.r_1)
    r_10                                     0x0004c648   Data          66  gt_draw.o(.rodata.r_10)
    [Anonymous Symbol]                       0x0004c648   Section        0  gt_draw.o(.rodata.r_10)
    r_11                                     0x0004c68a   Data          72  gt_draw.o(.rodata.r_11)
    [Anonymous Symbol]                       0x0004c68a   Section        0  gt_draw.o(.rodata.r_11)
    r_12                                     0x0004c6d2   Data          78  gt_draw.o(.rodata.r_12)
    [Anonymous Symbol]                       0x0004c6d2   Section        0  gt_draw.o(.rodata.r_12)
    r_13                                     0x0004c720   Data          84  gt_draw.o(.rodata.r_13)
    [Anonymous Symbol]                       0x0004c720   Section        0  gt_draw.o(.rodata.r_13)
    r_14                                     0x0004c774   Data          90  gt_draw.o(.rodata.r_14)
    [Anonymous Symbol]                       0x0004c774   Section        0  gt_draw.o(.rodata.r_14)
    r_15                                     0x0004c7ce   Data          96  gt_draw.o(.rodata.r_15)
    [Anonymous Symbol]                       0x0004c7ce   Section        0  gt_draw.o(.rodata.r_15)
    r_16                                     0x0004c82e   Data         102  gt_draw.o(.rodata.r_16)
    [Anonymous Symbol]                       0x0004c82e   Section        0  gt_draw.o(.rodata.r_16)
    r_2                                      0x0004c894   Data          18  gt_draw.o(.rodata.r_2)
    [Anonymous Symbol]                       0x0004c894   Section        0  gt_draw.o(.rodata.r_2)
    r_3                                      0x0004c8a6   Data          24  gt_draw.o(.rodata.r_3)
    [Anonymous Symbol]                       0x0004c8a6   Section        0  gt_draw.o(.rodata.r_3)
    r_4                                      0x0004c8be   Data          30  gt_draw.o(.rodata.r_4)
    [Anonymous Symbol]                       0x0004c8be   Section        0  gt_draw.o(.rodata.r_4)
    r_5                                      0x0004c8dc   Data          36  gt_draw.o(.rodata.r_5)
    [Anonymous Symbol]                       0x0004c8dc   Section        0  gt_draw.o(.rodata.r_5)
    r_6                                      0x0004c900   Data          42  gt_draw.o(.rodata.r_6)
    [Anonymous Symbol]                       0x0004c900   Section        0  gt_draw.o(.rodata.r_6)
    r_7                                      0x0004c92a   Data          48  gt_draw.o(.rodata.r_7)
    [Anonymous Symbol]                       0x0004c92a   Section        0  gt_draw.o(.rodata.r_7)
    r_8                                      0x0004c95a   Data          54  gt_draw.o(.rodata.r_8)
    [Anonymous Symbol]                       0x0004c95a   Section        0  gt_draw.o(.rodata.r_8)
    r_9                                      0x0004c990   Data          60  gt_draw.o(.rodata.r_9)
    [Anonymous Symbol]                       0x0004c990   Section        0  gt_draw.o(.rodata.r_9)
    small_radius_make                        0x0004c9cc   Data          68  gt_draw.o(.rodata.small_radius_make)
    [Anonymous Symbol]                       0x0004c9cc   Section        0  gt_draw.o(.rodata.small_radius_make)
    .Lstr                                    0x0004ca10   Data          32  bsp_sfc.o(.rodata.str1.1)
    [Anonymous Symbol]                       0x0004ca10   Section        0  bsp_sfc.o(.rodata.str1.1)
    .L.str.21                                0x0004ca30   Data          24  gt_port_vf.o(.rodata.str1.1)
    [Anonymous Symbol]                       0x0004ca30   Section        0  gt_port_vf.o(.rodata.str1.1)
    .L.str.27                                0x0004ca48   Data          24  gt_port_vf.o(.rodata.str1.1)
    .L.str.22                                0x0004ca60   Data          24  gt_port_vf.o(.rodata.str1.1)
    .L.str.28                                0x0004ca90   Data          24  gt_port_vf.o(.rodata.str1.1)
    .L.str.5                                 0x0004cac0   Data          31  gt_port_vf.o(.rodata.str1.1)
    .L.str.23                                0x0004cadf   Data          24  gt_port_vf.o(.rodata.str1.1)
    .L.str.29                                0x0004cb0f   Data          24  gt_port_vf.o(.rodata.str1.1)
    .L.str.34                                0x0004cb3f   Data          30  gt_port_vf.o(.rodata.str1.1)
    .L.str.38                                0x0004cb5d   Data          30  gt_port_vf.o(.rodata.str1.1)
    .L.str.35                                0x0004cb7b   Data          30  gt_port_vf.o(.rodata.str1.1)
    .L.str.36                                0x0004cb99   Data          30  gt_port_vf.o(.rodata.str1.1)
    .L.str.33                                0x0004cbb7   Data          30  gt_port_vf.o(.rodata.str1.1)
    .L.str.37                                0x0004cbd5   Data          30  gt_port_vf.o(.rodata.str1.1)
    .L.str.24                                0x0004cbf3   Data          24  gt_port_vf.o(.rodata.str1.1)
    .L.str.30                                0x0004cc0b   Data          24  gt_port_vf.o(.rodata.str1.1)
    .L.str.25                                0x0004cc23   Data          24  gt_port_vf.o(.rodata.str1.1)
    .L.str.31                                0x0004cc3b   Data          24  gt_port_vf.o(.rodata.str1.1)
    .L.str.2                                 0x0004cc53   Data          30  gt_port_vf.o(.rodata.str1.1)
    .L.str.26                                0x0004cc71   Data          24  gt_port_vf.o(.rodata.str1.1)
    .L.str.32                                0x0004cc89   Data          24  gt_port_vf.o(.rodata.str1.1)
    .L.str.13                                0x0004cca1   Data          31  gt_port_vf.o(.rodata.str1.1)
    .L.str.7                                 0x0004ccc0   Data          31  gt_port_vf.o(.rodata.str1.1)
    .L.str.11                                0x0004ccfe   Data          31  gt_port_vf.o(.rodata.str1.1)
    .L.str.15                                0x0004cd1d   Data          31  gt_port_vf.o(.rodata.str1.1)
    .L.str.9                                 0x0004cd3c   Data          31  gt_port_vf.o(.rodata.str1.1)
    .L.str.48                                0x0004cd5b   Data          25  gt_port_vf.o(.rodata.str1.1)
    .L.str.49                                0x0004cd74   Data          25  gt_port_vf.o(.rodata.str1.1)
    .L.str.39                                0x0004cd8d   Data          24  gt_port_vf.o(.rodata.str1.1)
    .L.str.40                                0x0004cda5   Data          24  gt_port_vf.o(.rodata.str1.1)
    .L.str.41                                0x0004cdbd   Data          24  gt_port_vf.o(.rodata.str1.1)
    .L.str.42                                0x0004cdd5   Data          24  gt_port_vf.o(.rodata.str1.1)
    .L.str.43                                0x0004cded   Data          24  gt_port_vf.o(.rodata.str1.1)
    .L.str.44                                0x0004ce05   Data          24  gt_port_vf.o(.rodata.str1.1)
    .L.str.45                                0x0004ce1d   Data          24  gt_port_vf.o(.rodata.str1.1)
    .L.str.46                                0x0004ce35   Data          24  gt_port_vf.o(.rodata.str1.1)
    .L.str.47                                0x0004ce4d   Data          24  gt_port_vf.o(.rodata.str1.1)
    .L.str.19                                0x0004ce65   Data          32  gt_port_vf.o(.rodata.str1.1)
    .L.str.17                                0x0004ce85   Data          32  gt_port_vf.o(.rodata.str1.1)
    .L.str.1                                 0x0004cea5   Data          27  gt_port_vf.o(.rodata.str1.1)
    .L.str.4                                 0x0004cec0   Data          27  gt_port_vf.o(.rodata.str1.1)
    .L.str.6                                 0x0004cedb   Data          21  gt_port_vf.o(.rodata.str1.1)
    .L.str.8                                 0x0004cef0   Data          20  gt_port_vf.o(.rodata.str1.1)
    .L.str.10                                0x0004cf04   Data          20  gt_port_vf.o(.rodata.str1.1)
    .L.str.12                                0x0004cf18   Data          20  gt_port_vf.o(.rodata.str1.1)
    .L.str.14                                0x0004cf2c   Data          20  gt_port_vf.o(.rodata.str1.1)
    .L.str.16                                0x0004cf40   Data          20  gt_port_vf.o(.rodata.str1.1)
    .L.str.20                                0x0004cf54   Data          21  gt_port_vf.o(.rodata.str1.1)
    .L.str.18                                0x0004cf7d   Data          21  gt_port_vf.o(.rodata.str1.1)
    .L.str.3                                 0x0004cf92   Data          21  gt_port_vf.o(.rodata.str1.1)
    .L.str                                   0x0004cfa7   Data          23  gt_port_vf.o(.rodata.str1.1)
    .L.str                                   0x0004cfba   Data           4  gt_port_vf.o(.rodata.str1.1)
    .L.str                                   0x0004cfbe   Data          51  gt_disp.o(.rodata.str1.1)
    .L.str                                   0x0004cfbe   Data          51  gt_disp.o(.rodata.str1.1)
    .L.str                                   0x0004cfbe   Data          51  gt_disp.o(.rodata.str1.1)
    .L.str                                   0x0004cfbe   Data          51  gt_disp.o(.rodata.str1.1)
    .L.str                                   0x0004cfbe   Data          51  gt_disp.o(.rodata.str1.1)
    .L.str                                   0x0004cfbe   Data          51  gt_disp.o(.rodata.str1.1)
    .L.str                                   0x0004cfbe   Data          51  gt_disp.o(.rodata.str1.1)
    .L.str                                   0x0004cfbe   Data          51  gt_disp.o(.rodata.str1.1)
    .L.str.1                                 0x0004cfbe   Data          51  gt_disp.o(.rodata.str1.1)
    .L.str.1                                 0x0004cfbe   Data          51  gt_disp.o(.rodata.str1.1)
    [Anonymous Symbol]                       0x0004cfbe   Section        0  gt_disp.o(.rodata.str1.1)
    .L.str.12                                0x0004cff1   Data          66  gt_disp.o(.rodata.str1.1)
    .L.str.2                                 0x0004d033   Data           4  gt_disp.o(.rodata.str1.1)
    .L.str.2                                 0x0004d033   Data           4  gt_disp.o(.rodata.str1.1)
    .L.str.8                                 0x0004d033   Data           4  gt_disp.o(.rodata.str1.1)
    .L.str.9                                 0x0004d033   Data           4  gt_disp.o(.rodata.str1.1)
    .L.str.1                                 0x0004d037   Data           6  gt_disp.o(.rodata.str1.1)
    .L.str.1                                 0x0004d037   Data           6  gt_disp.o(.rodata.str1.1)
    .L.str.1                                 0x0004d037   Data           6  gt_disp.o(.rodata.str1.1)
    .L.str.1                                 0x0004d037   Data           6  gt_disp.o(.rodata.str1.1)
    .L.str.1                                 0x0004d037   Data           6  gt_disp.o(.rodata.str1.1)
    .L.str.1                                 0x0004d037   Data           6  gt_disp.o(.rodata.str1.1)
    .L.str.1                                 0x0004d037   Data           6  gt_disp.o(.rodata.str1.1)
    .L.str.1                                 0x0004d037   Data           6  gt_disp.o(.rodata.str1.1)
    .L.str.2                                 0x0004d037   Data           6  gt_disp.o(.rodata.str1.1)
    .L.str.2                                 0x0004d037   Data           6  gt_disp.o(.rodata.str1.1)
    .L__func__._create_scr_by_id             0x0004d03d   Data          18  gt_disp.o(.rodata.str1.1)
    .L__func__._gt_disp_set_state            0x0004d04f   Data          19  gt_disp.o(.rodata.str1.1)
    .L.str.13                                0x0004d062   Data          45  gt_disp.o(.rodata.str1.1)
    .L__func__.gt_disp_stack_go_back         0x0004d08f   Data          22  gt_disp.o(.rodata.str1.1)
    .L.str.3                                 0x0004d0a5   Data           5  gt_disp.o(.rodata.str1.1)
    .L.str.3                                 0x0004d0a5   Data           5  gt_disp.o(.rodata.str1.1)
    .L.str.17                                0x0004d0aa   Data           4  gt_disp.o(.rodata.str1.1)
    .L__func__.gt_disp_get_area_act          0x0004d0ae   Data          21  gt_disp.o(.rodata.str1.1)
    .L__func__.gt_disp_stack_push_scr_only_st 0x0004d0c3   Data          31  gt_disp.o(.rodata.str1.1)
    .L.str.11                                0x0004d0e2   Data           9  gt_disp.o(.rodata.str1.1)
    .L.str.15                                0x0004d0eb   Data          10  gt_disp.o(.rodata.str1.1)
    .L__func__.gt_disp_get_area_max          0x0004d0f5   Data          21  gt_disp.o(.rodata.str1.1)
    .L.str.15                                0x0004d10a   Data          54  gt_draw.o(.rodata.str1.1)
    .L.str.4                                 0x0004d10a   Data          54  gt_draw.o(.rodata.str1.1)
    [Anonymous Symbol]                       0x0004d10a   Section        0  gt_draw.o(.rodata.str1.1)
    .L.str.11                                0x0004d140   Data          61  gt_draw.o(.rodata.str1.1)
    .L.str.12                                0x0004d17d   Data          66  gt_draw.o(.rodata.str1.1)
    .L.str.14                                0x0004d1bf   Data          61  gt_draw.o(.rodata.str1.1)
    .L.str.13                                0x0004d1fc   Data          64  gt_draw.o(.rodata.str1.1)
    .L.str.8                                 0x0004d23c   Data          75  gt_draw.o(.rodata.str1.1)
    .L.str.5                                 0x0004d287   Data          72  gt_draw.o(.rodata.str1.1)
    .L.str.4                                 0x0004d2cf   Data          71  gt_draw.o(.rodata.str1.1)
    .L.str.7                                 0x0004d316   Data          69  gt_draw.o(.rodata.str1.1)
    .L.str.1                                 0x0004d35b   Data          66  gt_draw.o(.rodata.str1.1)
    .L.str.6                                 0x0004d39d   Data           4  gt_draw.o(.rodata.str1.1)
    .L.str                                   0x0004d3a1   Data          33  gt_draw.o(.rodata.str1.1)
    .L__func__.draw_text_single_line         0x0004d3c2   Data          22  gt_draw.o(.rodata.str1.1)
    .L__func__.draw_text_multiple_line       0x0004d3d8   Data          24  gt_draw.o(.rodata.str1.1)
    .L__func__.draw_bg                       0x0004d3f0   Data           8  gt_draw.o(.rodata.str1.1)
    .L__func__._gt_get_radius_mask           0x0004d3f8   Data          20  gt_draw.o(.rodata.str1.1)
    .L__func__._draw_text_convertor_split    0x0004d40c   Data          27  gt_draw.o(.rodata.str1.1)
    .L__func__._gt_event_calling_event_cb    0x0004d427   Data          27  gt_event.o(.rodata.str1.1)
    [Anonymous Symbol]                       0x0004d427   Section        0  gt_event.o(.rodata.str1.1)
    .L.str                                   0x0004d442   Data          34  gt_event.o(.rodata.str1.1)
    .L.str.5                                 0x0004d464   Data           7  gt_event.o(.rodata.str1.1)
    .L.str                                   0x0004d46b   Data          40  gt_img_decoder.o(.rodata.str1.1)
    [Anonymous Symbol]                       0x0004d46b   Section        0  gt_img_decoder.o(.rodata.str1.1)
    .L__func__.gt_img_decoder_read_line      0x0004d493   Data          25  gt_img_decoder.o(.rodata.str1.1)
    .L__func__._indev_pressed_handle         0x0004d4ac   Data          22  gt_indev.o(.rodata.str1.1)
    [Anonymous Symbol]                       0x0004d4ac   Section        0  gt_indev.o(.rodata.str1.1)
    .L__func__.gt_refr_timer                 0x0004d4c2   Data          14  gt_refr.o(.rodata.str1.1)
    [Anonymous Symbol]                       0x0004d4c2   Section        0  gt_refr.o(.rodata.str1.1)
    .L.str.5                                 0x0004d4ca   Data           6  gt_refr.o(.rodata.str1.1)
    .L__func__.gt_scr_stack_set_depth        0x0004d4d0   Data          23  gt_scr_stack.o(.rodata.str1.1)
    [Anonymous Symbol]                       0x0004d4d0   Section        0  gt_scr_stack.o(.rodata.str1.1)
    .L.str.3                                 0x0004d4e7   Data          16  gt_scr_stack.o(.rodata.str1.1)
    .L.str.4                                 0x0004d4f7   Data           5  gt_scr_stack.o(.rodata.str1.1)
    .L__func__.gt_obj_set_opa                0x0004d4fc   Data          15  gt_style.o(.rodata.str1.1)
    [Anonymous Symbol]                       0x0004d4fc   Section        0  gt_style.o(.rodata.str1.1)
    .L__func__.gt_obj_set_focus_disabled     0x0004d50b   Data          26  gt_style.o(.rodata.str1.1)
    .L__func__.gt_obj_set_disabled           0x0004d525   Data          20  gt_style.o(.rodata.str1.1)
    .L__func__.gt_obj_set_fixed              0x0004d539   Data          17  gt_style.o(.rodata.str1.1)
    .L__func__.gt_obj_set_inside             0x0004d54a   Data          18  gt_style.o(.rodata.str1.1)
    .L__func__.gt_obj_pos_change             0x0004d55c   Data          18  gt_style.o(.rodata.str1.1)
    .L__func__.gt_obj_set_visible            0x0004d56e   Data          19  gt_style.o(.rodata.str1.1)
    .L.str.3                                 0x0004d581   Data           4  gt_style.o(.rodata.str1.1)
    .L.str.3                                 0x0004d581   Data           4  gt_style.o(.rodata.str1.1)
    .L__func__.gt_obj_set_focus              0x0004d585   Data          17  gt_style.o(.rodata.str1.1)
    .L__func__.gt_obj_set_overflow           0x0004d596   Data          20  gt_style.o(.rodata.str1.1)
    .L__func__.gt_obj_set_untouchability     0x0004d5aa   Data          26  gt_style.o(.rodata.str1.1)
    .L.str.4                                 0x0004d5c4   Data          34  gt_timer.o(.rodata.str1.1)
    [Anonymous Symbol]                       0x0004d5c4   Section        0  gt_timer.o(.rodata.str1.1)
    .L.str.3                                 0x0004d5e6   Data           8  gt_sjpg.o(.rodata.str1.1)
    [Anonymous Symbol]                       0x0004d5e6   Section        0  gt_sjpg.o(.rodata.str1.1)
    .L.str.4                                 0x0004d5ee   Data          39  gt_sjpg.o(.rodata.str1.1)
    .L.str.1                                 0x0004d615   Data          37  gt_png.o(.rodata.str1.1)
    [Anonymous Symbol]                       0x0004d615   Section        0  gt_png.o(.rodata.str1.1)
    [Anonymous Symbol]                       0x0004d63a   Section        0  lodepng.o(.rodata.str1.1)
    .L.str.113                               0x0004da39   Data          38  lodepng.o(.rodata.str1.1)
    .L.str.112                               0x0004dcb4   Data          19  lodepng.o(.rodata.str1.1)
    .L.str                                   0x0004e967   Data          33  gt_font.o(.rodata.str1.1)
    [Anonymous Symbol]                       0x0004e967   Section        0  gt_font.o(.rodata.str1.1)
    .L__func__._get_convertor_string_width   0x0004e988   Data          28  gt_font.o(.rodata.str1.1)
    [Anonymous Symbol]                       0x0004e9a4   Section        0  gt_symbol.o(.rodata.str1.1)
    .L.str                                   0x0004e9b8   Data           4  gt_symbol.o(.rodata.str1.1)
    .L.str                                   0x0004ea03   Data           1  gt_symbol.o(.rodata.str1.1)
    .L.str.2                                 0x0004ea03   Data           1  gt_symbol.o(.rodata.str1.1)
    .L.str.2                                 0x0004ea03   Data           1  gt_symbol.o(.rodata.str1.1)
    .L.str.2                                 0x0004ea03   Data           1  gt_symbol.o(.rodata.str1.1)
    .L.str.2                                 0x0004ea03   Data           1  gt_symbol.o(.rodata.str1.1)
    .L.str.2                                 0x0004ea03   Data           1  gt_symbol.o(.rodata.str1.1)
    .L.str.2                                 0x0004ea03   Data           1  gt_symbol.o(.rodata.str1.1)
    .L.str.2                                 0x0004ea03   Data           1  gt_symbol.o(.rodata.str1.1)
    .L.str.2                                 0x0004ea03   Data           1  gt_symbol.o(.rodata.str1.1)
    .L.str.2                                 0x0004ea03   Data           1  gt_symbol.o(.rodata.str1.1)
    .L.str.2                                 0x0004ea03   Data           1  gt_symbol.o(.rodata.str1.1)
    .L.str.3                                 0x0004ea03   Data           1  gt_symbol.o(.rodata.str1.1)
    .L.str.3                                 0x0004ea03   Data           1  gt_symbol.o(.rodata.str1.1)
    .L.str.3                                 0x0004ea03   Data           1  gt_symbol.o(.rodata.str1.1)
    .L.str.3                                 0x0004ea03   Data           1  gt_symbol.o(.rodata.str1.1)
    .L.str.3                                 0x0004ea03   Data           1  gt_symbol.o(.rodata.str1.1)
    .L.str.3                                 0x0004ea03   Data           1  gt_symbol.o(.rodata.str1.1)
    .L.str.3                                 0x0004ea03   Data           1  gt_symbol.o(.rodata.str1.1)
    .L.str.3                                 0x0004ea03   Data           1  gt_symbol.o(.rodata.str1.1)
    .L.str.3                                 0x0004ea03   Data           1  gt_symbol.o(.rodata.str1.1)
    .L.str.3                                 0x0004ea03   Data           1  gt_symbol.o(.rodata.str1.1)
    .L.str.4                                 0x0004ea03   Data           1  gt_symbol.o(.rodata.str1.1)
    .L__func__._gt_disp_reload_max_area      0x0004ea04   Data          25  gt_hal_disp.o(.rodata.str1.1)
    [Anonymous Symbol]                       0x0004ea04   Section        0  gt_hal_disp.o(.rodata.str1.1)
    .L__func__._gt_disp_update_max_area      0x0004ea1d   Data          25  gt_hal_disp.o(.rodata.str1.1)
    .L__func__._gt_disp_create               0x0004ea36   Data          16  gt_hal_disp.o(.rodata.str1.1)
    .L__func__._calc_max_area_recursive      0x0004ea46   Data          25  gt_hal_disp.o(.rodata.str1.1)
    .L.str                                   0x0004ea5f   Data          35  gt_hal_src.o(.rodata.str1.1)
    [Anonymous Symbol]                       0x0004ea5f   Section        0  gt_hal_src.o(.rodata.str1.1)
    .L.str                                   0x0004ea82   Data          34  gt_hal_vf.o(.rodata.str1.1)
    [Anonymous Symbol]                       0x0004ea82   Section        0  gt_hal_vf.o(.rodata.str1.1)
    .L.str                                   0x0004eaa4   Data          35  gt_anim.o(.rodata.str1.1)
    [Anonymous Symbol]                       0x0004eaa4   Section        0  gt_anim.o(.rodata.str1.1)
    .L.str.5                                 0x0004eac7   Data          37  gt_anim.o(.rodata.str1.1)
    .L.str.9                                 0x0004eaec   Data          64  gt_tlsf.o(.rodata.str1.1)
    [Anonymous Symbol]                       0x0004eaec   Section        0  gt_tlsf.o(.rodata.str1.1)
    .L.str.8                                 0x0004eb2c   Data          55  gt_tlsf.o(.rodata.str1.1)
    .L.str                                   0x0004eb63   Data          35  gt_stack.o(.rodata.str1.1)
    [Anonymous Symbol]                       0x0004eb63   Section        0  gt_stack.o(.rodata.str1.1)
    .L.str                                   0x0004eb86   Data          36  gt_vector.o(.rodata.str1.1)
    [Anonymous Symbol]                       0x0004eb86   Section        0  gt_vector.o(.rodata.str1.1)
    .L.str                                   0x0004ebaa   Data          35  gt_btn.o(.rodata.str1.1)
    [Anonymous Symbol]                       0x0004ebaa   Section        0  gt_btn.o(.rodata.str1.1)
    .L.str                                   0x0004ebcd   Data          35  gt_img.o(.rodata.str1.1)
    [Anonymous Symbol]                       0x0004ebcd   Section        0  gt_img.o(.rodata.str1.1)
    .L.str                                   0x0004ebf0   Data          38  gt_imgbtn.o(.rodata.str1.1)
    [Anonymous Symbol]                       0x0004ebf0   Section        0  gt_imgbtn.o(.rodata.str1.1)
    .L.str                                   0x0004ec16   Data          37  gt_label.o(.rodata.str1.1)
    [Anonymous Symbol]                       0x0004ec16   Section        0  gt_label.o(.rodata.str1.1)
    .L.str                                   0x0004ec3b   Data          41  gt_obj_class.o(.rodata.str1.1)
    [Anonymous Symbol]                       0x0004ec3b   Section        0  gt_obj_class.o(.rodata.str1.1)
    .L.str.5                                 0x0004ec64   Data          78  gt_player.o(.rodata.str1.1)
    [Anonymous Symbol]                       0x0004ec64   Section        0  gt_player.o(.rodata.str1.1)
    .L.str                                   0x0004ecb2   Data          38  gt_player.o(.rodata.str1.1)
    symbol_16x16_backspace                   0x0004ecd8   Data         256  gt_symbol.o(.rodata.symbol_16x16_backspace)
    [Anonymous Symbol]                       0x0004ecd8   Section        0  gt_symbol.o(.rodata.symbol_16x16_backspace)
    symbol_16x16_close                       0x0004edd8   Data         256  gt_symbol.o(.rodata.symbol_16x16_close)
    [Anonymous Symbol]                       0x0004edd8   Section        0  gt_symbol.o(.rodata.symbol_16x16_close)
    symbol_16x16_down                        0x0004eed8   Data         256  gt_symbol.o(.rodata.symbol_16x16_down)
    [Anonymous Symbol]                       0x0004eed8   Section        0  gt_symbol.o(.rodata.symbol_16x16_down)
    symbol_16x16_keyboard                    0x0004efd8   Data         256  gt_symbol.o(.rodata.symbol_16x16_keyboard)
    [Anonymous Symbol]                       0x0004efd8   Section        0  gt_symbol.o(.rodata.symbol_16x16_keyboard)
    symbol_16x16_left                        0x0004f0d8   Data         256  gt_symbol.o(.rodata.symbol_16x16_left)
    [Anonymous Symbol]                       0x0004f0d8   Section        0  gt_symbol.o(.rodata.symbol_16x16_left)
    symbol_16x16_new_line                    0x0004f1d8   Data         256  gt_symbol.o(.rodata.symbol_16x16_new_line)
    [Anonymous Symbol]                       0x0004f1d8   Section        0  gt_symbol.o(.rodata.symbol_16x16_new_line)
    symbol_16x16_ok                          0x0004f2d8   Data         256  gt_symbol.o(.rodata.symbol_16x16_ok)
    [Anonymous Symbol]                       0x0004f2d8   Section        0  gt_symbol.o(.rodata.symbol_16x16_ok)
    symbol_16x16_right                       0x0004f3d8   Data         256  gt_symbol.o(.rodata.symbol_16x16_right)
    [Anonymous Symbol]                       0x0004f3d8   Section        0  gt_symbol.o(.rodata.symbol_16x16_right)
    symbol_16x16_save                        0x0004f4d8   Data         256  gt_symbol.o(.rodata.symbol_16x16_save)
    [Anonymous Symbol]                       0x0004f4d8   Section        0  gt_symbol.o(.rodata.symbol_16x16_save)
    symbol_16x16_up                          0x0004f5d8   Data         256  gt_symbol.o(.rodata.symbol_16x16_up)
    [Anonymous Symbol]                       0x0004f5d8   Section        0  gt_symbol.o(.rodata.symbol_16x16_up)
    symbol_24x24_close                       0x0004f6d8   Data         576  gt_symbol.o(.rodata.symbol_24x24_close)
    [Anonymous Symbol]                       0x0004f6d8   Section        0  gt_symbol.o(.rodata.symbol_24x24_close)
    symbol_backspace_24x24                   0x0004f918   Data         576  gt_symbol.o(.rodata.symbol_backspace_24x24)
    [Anonymous Symbol]                       0x0004f918   Section        0  gt_symbol.o(.rodata.symbol_backspace_24x24)
    symbol_ch_16x16                          0x0004fb58   Data         256  gt_symbol.o(.rodata.symbol_ch_16x16)
    [Anonymous Symbol]                       0x0004fb58   Section        0  gt_symbol.o(.rodata.symbol_ch_16x16)
    symbol_ch_24x24                          0x0004fc58   Data         576  gt_symbol.o(.rodata.symbol_ch_24x24)
    [Anonymous Symbol]                       0x0004fc58   Section        0  gt_symbol.o(.rodata.symbol_ch_24x24)
    symbol_en_16x16                          0x0004fe98   Data         256  gt_symbol.o(.rodata.symbol_en_16x16)
    [Anonymous Symbol]                       0x0004fe98   Section        0  gt_symbol.o(.rodata.symbol_en_16x16)
    symbol_en_24x24                          0x0004ff98   Data         576  gt_symbol.o(.rodata.symbol_en_24x24)
    [Anonymous Symbol]                       0x0004ff98   Section        0  gt_symbol.o(.rodata.symbol_en_24x24)
    symbol_keyboard_24x24                    0x000501d8   Data         576  gt_symbol.o(.rodata.symbol_keyboard_24x24)
    [Anonymous Symbol]                       0x000501d8   Section        0  gt_symbol.o(.rodata.symbol_keyboard_24x24)
    symbol_left_24x24                        0x00050418   Data         576  gt_symbol.o(.rodata.symbol_left_24x24)
    [Anonymous Symbol]                       0x00050418   Section        0  gt_symbol.o(.rodata.symbol_left_24x24)
    symbol_lower_case_16x16                  0x00050658   Data         256  gt_symbol.o(.rodata.symbol_lower_case_16x16)
    [Anonymous Symbol]                       0x00050658   Section        0  gt_symbol.o(.rodata.symbol_lower_case_16x16)
    symbol_lower_case_24x24                  0x00050758   Data         576  gt_symbol.o(.rodata.symbol_lower_case_24x24)
    [Anonymous Symbol]                       0x00050758   Section        0  gt_symbol.o(.rodata.symbol_lower_case_24x24)
    symbol_new_line_24x24                    0x00050998   Data         576  gt_symbol.o(.rodata.symbol_new_line_24x24)
    [Anonymous Symbol]                       0x00050998   Section        0  gt_symbol.o(.rodata.symbol_new_line_24x24)
    symbol_ok_24x24                          0x00050bd8   Data         576  gt_symbol.o(.rodata.symbol_ok_24x24)
    [Anonymous Symbol]                       0x00050bd8   Section        0  gt_symbol.o(.rodata.symbol_ok_24x24)
    symbol_right_24x24                       0x00050e18   Data         576  gt_symbol.o(.rodata.symbol_right_24x24)
    [Anonymous Symbol]                       0x00050e18   Section        0  gt_symbol.o(.rodata.symbol_right_24x24)
    symbol_space_16x16                       0x00051058   Data         256  gt_symbol.o(.rodata.symbol_space_16x16)
    [Anonymous Symbol]                       0x00051058   Section        0  gt_symbol.o(.rodata.symbol_space_16x16)
    symbol_space_24x24                       0x00051158   Data         576  gt_symbol.o(.rodata.symbol_space_24x24)
    [Anonymous Symbol]                       0x00051158   Section        0  gt_symbol.o(.rodata.symbol_space_24x24)
    symbol_upper_case_16x16                  0x00051398   Data         256  gt_symbol.o(.rodata.symbol_upper_case_16x16)
    [Anonymous Symbol]                       0x00051398   Section        0  gt_symbol.o(.rodata.symbol_upper_case_16x16)
    symbol_upper_case_24x24                  0x00051498   Data         576  gt_symbol.o(.rodata.symbol_upper_case_24x24)
    [Anonymous Symbol]                       0x00051498   Section        0  gt_symbol.o(.rodata.symbol_upper_case_24x24)
    symbol_well_number_16x16                 0x000516d8   Data         256  gt_symbol.o(.rodata.symbol_well_number_16x16)
    [Anonymous Symbol]                       0x000516d8   Section        0  gt_symbol.o(.rodata.symbol_well_number_16x16)
    symbol_well_number_24x24                 0x000517d8   Data         576  gt_symbol.o(.rodata.symbol_well_number_24x24)
    [Anonymous Symbol]                       0x000517d8   Section        0  gt_symbol.o(.rodata.symbol_well_number_24x24)
    symbols_16x16                            0x00051a18   Data         192  gt_symbol.o(.rodata.symbols_16x16)
    [Anonymous Symbol]                       0x00051a18   Section        0  gt_symbol.o(.rodata.symbols_16x16)
    symbols_24x24                            0x00051ad8   Data         168  gt_symbol.o(.rodata.symbols_24x24)
    [Anonymous Symbol]                       0x00051ad8   Section        0  gt_symbol.o(.rodata.symbols_24x24)
    virt_file_sys                            0x00051b80   Data        1140  gt_port_vf.o(.rodata.virt_file_sys)
    [Anonymous Symbol]                       0x00051b80   Section        0  gt_port_vf.o(.rodata.virt_file_sys)
    voice_play_16x16_left_1                  0x00051ff4   Data         256  gt_symbol.o(.rodata.voice_play_16x16_left_1)
    [Anonymous Symbol]                       0x00051ff4   Section        0  gt_symbol.o(.rodata.voice_play_16x16_left_1)
    voice_play_16x16_left_2                  0x000520f4   Data         256  gt_symbol.o(.rodata.voice_play_16x16_left_2)
    [Anonymous Symbol]                       0x000520f4   Section        0  gt_symbol.o(.rodata.voice_play_16x16_left_2)
    voice_play_16x16_left_3                  0x000521f4   Data         256  gt_symbol.o(.rodata.voice_play_16x16_left_3)
    [Anonymous Symbol]                       0x000521f4   Section        0  gt_symbol.o(.rodata.voice_play_16x16_left_3)
    voice_play_16x16_right_1                 0x000522f4   Data         256  gt_symbol.o(.rodata.voice_play_16x16_right_1)
    [Anonymous Symbol]                       0x000522f4   Section        0  gt_symbol.o(.rodata.voice_play_16x16_right_1)
    voice_play_16x16_right_2                 0x000523f4   Data         256  gt_symbol.o(.rodata.voice_play_16x16_right_2)
    [Anonymous Symbol]                       0x000523f4   Section        0  gt_symbol.o(.rodata.voice_play_16x16_right_2)
    voice_play_16x16_right_3                 0x000524f4   Data         256  gt_symbol.o(.rodata.voice_play_16x16_right_3)
    [Anonymous Symbol]                       0x000524f4   Section        0  gt_symbol.o(.rodata.voice_play_16x16_right_3)
    voice_play_24x24_left_1                  0x000525f4   Data         576  gt_symbol.o(.rodata.voice_play_24x24_left_1)
    [Anonymous Symbol]                       0x000525f4   Section        0  gt_symbol.o(.rodata.voice_play_24x24_left_1)
    voice_play_24x24_left_2                  0x00052834   Data         576  gt_symbol.o(.rodata.voice_play_24x24_left_2)
    [Anonymous Symbol]                       0x00052834   Section        0  gt_symbol.o(.rodata.voice_play_24x24_left_2)
    voice_play_24x24_left_3                  0x00052a74   Data         576  gt_symbol.o(.rodata.voice_play_24x24_left_3)
    [Anonymous Symbol]                       0x00052a74   Section        0  gt_symbol.o(.rodata.voice_play_24x24_left_3)
    voice_play_24x24_right_1                 0x00052cb4   Data         576  gt_symbol.o(.rodata.voice_play_24x24_right_1)
    [Anonymous Symbol]                       0x00052cb4   Section        0  gt_symbol.o(.rodata.voice_play_24x24_right_1)
    voice_play_24x24_right_2                 0x00052ef4   Data         576  gt_symbol.o(.rodata.voice_play_24x24_right_2)
    [Anonymous Symbol]                       0x00052ef4   Section        0  gt_symbol.o(.rodata.voice_play_24x24_right_2)
    voice_play_24x24_right_3                 0x00053134   Data         576  gt_symbol.o(.rodata.voice_play_24x24_right_3)
    [Anonymous Symbol]                       0x00053134   Section        0  gt_symbol.o(.rodata.voice_play_24x24_right_3)
    .data                                    0x20000000   Section        4  stdout.o(.data)
    .L_MergedGlobals                         0x20000004   Data           8  system_swm341.o(.data..L_MergedGlobals)
    [Anonymous Symbol]                       0x20000004   Section        0  system_swm341.o(.data..L_MergedGlobals)
    PADDING                                  0x2000000c   Data          64  gt_gui_driver.o(.data.PADDING)
    [Anonymous Symbol]                       0x2000000c   Section        0  gt_gui_driver.o(.data.PADDING)
    _focus_color                             0x20000050   Data           4  gt_color.o(.data._focus_color)
    [Anonymous Symbol]                       0x20000050   Section        0  gt_color.o(.data._focus_color)
    _gt_indev_handler_keypad.last_key        0x20000090   Data           4  gt_indev.o(.data._gt_indev_handler_keypad.last_key)
    [Anonymous Symbol]                       0x20000090   Section        0  gt_indev.o(.data._gt_indev_handler_keypad.last_key)
    _state                                   0x20000094   Data           1  gt_hal_vf.o(.data._state)
    [Anonymous Symbol]                       0x20000094   Section        0  gt_hal_vf.o(.data._state)
    .L_MergedGlobals                         0x20000098   Data          21  bsp_uart.o(.bss..L_MergedGlobals)
    _uart3_count                             0x20000098   Data           1  bsp_uart.o(.bss..L_MergedGlobals)
    [Anonymous Symbol]                       0x20000098   Section        0  bsp_uart.o(.bss..L_MergedGlobals)
    _uart3_rx_buf                            0x20000099   Data          20  bsp_uart.o(.bss..L_MergedGlobals)
    .L_MergedGlobals                         0x200000b0   Data          32  gt_port_indev.o(.bss..L_MergedGlobals)
    indev_drv_pointer                        0x200000b0   Data          16  gt_port_indev.o(.bss..L_MergedGlobals)
    [Anonymous Symbol]                       0x200000b0   Section        0  gt_port_indev.o(.bss..L_MergedGlobals)
    indev_drv_button                         0x200000c0   Data          16  gt_port_indev.o(.bss..L_MergedGlobals)
    .L_MergedGlobals                         0x200000d0   Data          16  gt_indev.o(.bss..L_MergedGlobals)
    _gt_indev_handler_button.flag_key_down   0x200000d0   Data           1  gt_indev.o(.bss..L_MergedGlobals)
    [Anonymous Symbol]                       0x200000d0   Section        0  gt_indev.o(.bss..L_MergedGlobals)
    _gt_indev_handler_button.last_run        0x200000d4   Data           4  gt_indev.o(.bss..L_MergedGlobals)
    _indev_params                            0x200000d8   Data           8  gt_indev.o(.bss..L_MergedGlobals)
    .L_MergedGlobals                         0x200000e0   Data          12  gt_mem.o(.bss..L_MergedGlobals)
    _addr_start                              0x200000e0   Data           1  gt_mem.o(.bss..L_MergedGlobals)
    [Anonymous Symbol]                       0x200000e0   Section        0  gt_mem.o(.bss..L_MergedGlobals)
    _addr_end                                0x200000e4   Data           1  gt_mem.o(.bss..L_MergedGlobals)
    _tlsf                                    0x200000e8   Data           4  gt_mem.o(.bss..L_MergedGlobals)
    .L_MergedGlobals                         0x200000ec   Data          24  gt_hal_indev.o(.bss..L_MergedGlobals)
    cnt_indev                                0x200000ec   Data           1  gt_hal_indev.o(.bss..L_MergedGlobals)
    [Anonymous Symbol]                       0x200000ec   Section        0  gt_hal_indev.o(.bss..L_MergedGlobals)
    indev_act                                0x200000f0   Data          20  gt_hal_indev.o(.bss..L_MergedGlobals)
    .L_MergedGlobals                         0x20000104   Data           8  gt_hal_tick.o(.bss..L_MergedGlobals)
    tick_irq_flag                            0x20000104   Data           1  gt_hal_tick.o(.bss..L_MergedGlobals)
    [Anonymous Symbol]                       0x20000104   Section        0  gt_hal_tick.o(.bss..L_MergedGlobals)
    _tick                                    0x20000108   Data           4  gt_hal_tick.o(.bss..L_MergedGlobals)
    .L_MergedGlobals                         0x2000010c   Data           8  gt_hal_vf.o(.bss..L_MergedGlobals)
    _vfs                                     0x2000010c   Data           4  gt_hal_vf.o(.bss..L_MergedGlobals)
    [Anonymous Symbol]                       0x2000010c   Section        0  gt_hal_vf.o(.bss..L_MergedGlobals)
    _vf_dev                                  0x20000110   Data           4  gt_hal_vf.o(.bss..L_MergedGlobals)
    .L_MergedGlobals                         0x20000114   Data          16  gt_anim.o(.bss..L_MergedGlobals)
    _is_list_change                          0x20000114   Data           1  gt_anim.o(.bss..L_MergedGlobals)
    [Anonymous Symbol]                       0x20000114   Section        0  gt_anim.o(.bss..L_MergedGlobals)
    _is_run_same_time                        0x20000115   Data           1  gt_anim.o(.bss..L_MergedGlobals)
    _time_last_run                           0x20000118   Data           4  gt_anim.o(.bss..L_MergedGlobals)
    _anim_act                                0x2000011c   Data           4  gt_anim.o(.bss..L_MergedGlobals)
    _anim_timer                              0x20000120   Data           4  gt_anim.o(.bss..L_MergedGlobals)
    .L_MergedGlobals                         0x20000124   Data          92  gt_init_screen_home.o(.bss..L_MergedGlobals)
    [Anonymous Symbol]                       0x20000124   Section        0  gt_init_screen_home.o(.bss..L_MergedGlobals)
    img1                                     0x20000128   Data           4  gt_init_screen_home.o(.bss..L_MergedGlobals)
    img3                                     0x2000012c   Data           4  gt_init_screen_home.o(.bss..L_MergedGlobals)
    imgbtn1                                  0x20000130   Data           4  gt_init_screen_home.o(.bss..L_MergedGlobals)
    imgbtn2                                  0x20000134   Data           4  gt_init_screen_home.o(.bss..L_MergedGlobals)
    imgbtn4                                  0x20000138   Data           4  gt_init_screen_home.o(.bss..L_MergedGlobals)
    imgbtn5                                  0x2000013c   Data           4  gt_init_screen_home.o(.bss..L_MergedGlobals)
    imgbtn6                                  0x20000140   Data           4  gt_init_screen_home.o(.bss..L_MergedGlobals)
    imgbtn7                                  0x20000144   Data           4  gt_init_screen_home.o(.bss..L_MergedGlobals)
    imgbtn8                                  0x20000148   Data           4  gt_init_screen_home.o(.bss..L_MergedGlobals)
    imgbtn9                                  0x2000014c   Data           4  gt_init_screen_home.o(.bss..L_MergedGlobals)
    imgbtn10                                 0x20000150   Data           4  gt_init_screen_home.o(.bss..L_MergedGlobals)
    imgbtn11                                 0x20000154   Data           4  gt_init_screen_home.o(.bss..L_MergedGlobals)
    imgbtn12                                 0x20000158   Data           4  gt_init_screen_home.o(.bss..L_MergedGlobals)
    imgbtn13                                 0x2000015c   Data           4  gt_init_screen_home.o(.bss..L_MergedGlobals)
    player1                                  0x20000160   Data           4  gt_init_screen_home.o(.bss..L_MergedGlobals)
    player2                                  0x20000164   Data           4  gt_init_screen_home.o(.bss..L_MergedGlobals)
    player3                                  0x20000168   Data           4  gt_init_screen_home.o(.bss..L_MergedGlobals)
    player4                                  0x2000016c   Data           4  gt_init_screen_home.o(.bss..L_MergedGlobals)
    player5                                  0x20000170   Data           4  gt_init_screen_home.o(.bss..L_MergedGlobals)
    player6                                  0x20000174   Data           4  gt_init_screen_home.o(.bss..L_MergedGlobals)
    player8                                  0x20000178   Data           4  gt_init_screen_home.o(.bss..L_MergedGlobals)
    imgbtn14                                 0x2000017c   Data           4  gt_init_screen_home.o(.bss..L_MergedGlobals)
    GT_UID_MD5_FLAG                          0x20000181   Data           1  gt_gui_driver.o(.bss.GT_UID_MD5_FLAG)
    [Anonymous Symbol]                       0x20000181   Section        0  gt_gui_driver.o(.bss.GT_UID_MD5_FLAG)
    Systick_Time                             0x20000188   Data           4  dev_systick.o(.bss.Systick_Time)
    [Anonymous Symbol]                       0x20000188   Section        0  dev_systick.o(.bss.Systick_Time)
    _gt_init_done_flag                       0x200001a2   Data           1  gt_handler.o(.bss._gt_init_done_flag)
    [Anonymous Symbol]                       0x200001a2   Section        0  gt_handler.o(.bss._gt_init_done_flag)
    _gt_project_encoding                     0x200001a3   Data           1  gt_font.o(.bss._gt_project_encoding)
    [Anonymous Symbol]                       0x200001a3   Section        0  gt_font.o(.bss._gt_project_encoding)
    _gt_timer_task_ready_flag                0x200001a4   Data           1  gt_timer.o(.bss._gt_timer_task_ready_flag)
    [Anonymous Symbol]                       0x200001a4   Section        0  gt_timer.o(.bss._gt_timer_task_ready_flag)
    _mem_pool_int                            0x200001a8   Data       49152  gt_mem.o(.bss._mem_pool_int)
    [Anonymous Symbol]                       0x200001a8   Section        0  gt_mem.o(.bss._mem_pool_int)
    _self                                    0x2000c1a8   Data           4  gt_hal_src.o(.bss._self)
    [Anonymous Symbol]                       0x2000c1a8   Section        0  gt_hal_src.o(.bss._self)
    drv                                      0x2000c1ac   Data          12  gt_port_disp.o(.bss.drv)
    [Anonymous Symbol]                       0x2000c1ac   Section        0  gt_port_disp.o(.bss.drv)
    graph_buf_all                            0x2000c1b8   Data           4  gt_hal_disp.o(.bss.graph_buf_all)
    [Anonymous Symbol]                       0x2000c1b8   Section        0  gt_hal_disp.o(.bss.graph_buf_all)
    gt_font_chinese_encoding                 0x2000c1bc   Data           1  gt_gui_driver.o(.bss.gt_font_chinese_encoding)
    [Anonymous Symbol]                       0x2000c1bc   Section        0  gt_gui_driver.o(.bss.gt_font_chinese_encoding)
    indev                                    0x2000c1c0   Data           4  gt_hal_indev.o(.bss.indev)
    [Anonymous Symbol]                       0x2000c1c0   Section        0  gt_hal_indev.o(.bss.indev)
    STACK                                    0x2000c1c8   Section     4096  startup_swm341.o(STACK)
    buf_all                                  0x80180000   Data       768000  gt_port_disp.o(.bss.ARM.__at_0x80180000)
    [Anonymous Symbol]                       0x80180000   Section        0  gt_port_disp.o(.bss.ARM.__at_0x80180000)

    Global Symbols

    Symbol Name                              Value     Ov Type        Size  Object(Section)

    BuildAttributes$$THM_ISAv4$E$P$D$K$B$S$7EM$8M$PE$A:L22UL41UL21$X:L11$S22US41US21$IEEE1$IW$~IW$USESV6$~STKCKD$USESV7$~SHL$OTIME$ROPI$IEEEF$EBA8$MICROLIB$REQ8$PRES8$EABIv2 0x00000000   Number         0  anon$$obj.o ABSOLUTE
    _printf_a                                0x00000000   Number         0  printfstubs.o ABSOLUTE
    _printf_c                                0x00000000   Number         0  printfstubs.o ABSOLUTE
    _printf_charcount                        0x00000000   Number         0  printfstubs.o ABSOLUTE
    _printf_d                                0x00000000   Number         0  printfstubs.o ABSOLUTE
    _printf_e                                0x00000000   Number         0  printfstubs.o ABSOLUTE
    _printf_f                                0x00000000   Number         0  printfstubs.o ABSOLUTE
    _printf_flags                            0x00000000   Number         0  printfstubs.o ABSOLUTE
    _printf_fp_dec                           0x00000000   Number         0  printfstubs.o ABSOLUTE
    _printf_fp_hex                           0x00000000   Number         0  printfstubs.o ABSOLUTE
    _printf_g                                0x00000000   Number         0  printfstubs.o ABSOLUTE
    _printf_i                                0x00000000   Number         0  printfstubs.o ABSOLUTE
    _printf_int_dec                          0x00000000   Number         0  printfstubs.o ABSOLUTE
    _printf_l                                0x00000000   Number         0  printfstubs.o ABSOLUTE
    _printf_lc                               0x00000000   Number         0  printfstubs.o ABSOLUTE
    _printf_ll                               0x00000000   Number         0  printfstubs.o ABSOLUTE
    _printf_lld                              0x00000000   Number         0  printfstubs.o ABSOLUTE
    _printf_lli                              0x00000000   Number         0  printfstubs.o ABSOLUTE
    _printf_llo                              0x00000000   Number         0  printfstubs.o ABSOLUTE
    _printf_llu                              0x00000000   Number         0  printfstubs.o ABSOLUTE
    _printf_llx                              0x00000000   Number         0  printfstubs.o ABSOLUTE
    _printf_longlong_dec                     0x00000000   Number         0  printfstubs.o ABSOLUTE
    _printf_longlong_hex                     0x00000000   Number         0  printfstubs.o ABSOLUTE
    _printf_longlong_oct                     0x00000000   Number         0  printfstubs.o ABSOLUTE
    _printf_ls                               0x00000000   Number         0  printfstubs.o ABSOLUTE
    _printf_mbtowc                           0x00000000   Number         0  printfstubs.o ABSOLUTE
    _printf_n                                0x00000000   Number         0  printfstubs.o ABSOLUTE
    _printf_o                                0x00000000   Number         0  printfstubs.o ABSOLUTE
    _printf_p                                0x00000000   Number         0  printfstubs.o ABSOLUTE
    _printf_percent                          0x00000000   Number         0  printfstubs.o ABSOLUTE
    _printf_pre_padding                      0x00000000   Number         0  printfstubs.o ABSOLUTE
    _printf_return_value                     0x00000000   Number         0  printfstubs.o ABSOLUTE
    _printf_s                                0x00000000   Number         0  printfstubs.o ABSOLUTE
    _printf_sizespec                         0x00000000   Number         0  printfstubs.o ABSOLUTE
    _printf_str                              0x00000000   Number         0  printfstubs.o ABSOLUTE
    _printf_truncate_signed                  0x00000000   Number         0  printfstubs.o ABSOLUTE
    _printf_truncate_unsigned                0x00000000   Number         0  printfstubs.o ABSOLUTE
    _printf_u                                0x00000000   Number         0  printfstubs.o ABSOLUTE
    _printf_wc                               0x00000000   Number         0  printfstubs.o ABSOLUTE
    _printf_wctomb                           0x00000000   Number         0  printfstubs.o ABSOLUTE
    _printf_widthprec                        0x00000000   Number         0  printfstubs.o ABSOLUTE
    _printf_x                                0x00000000   Number         0  printfstubs.o ABSOLUTE
    __cpp_initialize__aeabi_                  - Undefined Weak Reference
    __cxa_finalize                            - Undefined Weak Reference
    __decompress                              - Undefined Weak Reference
    _clock_init                               - Undefined Weak Reference
    _microlib_exit                            - Undefined Weak Reference
    __Vectors_Size                           0x000001a8   Number         0  startup_swm341.o ABSOLUTE
    __Vectors                                0x00020000   Data           4  startup_swm341.o(RESET)
    __Vectors_End                            0x000201a8   Data           0  startup_swm341.o(RESET)
    __main                                   0x000201a9   Thumb Code     0  entry.o(.ARM.Collect$$$$00000000)
    _main_stk                                0x000201a9   Thumb Code     0  entry2.o(.ARM.Collect$$$$00000001)
    _main_scatterload                        0x000201ad   Thumb Code     0  entry5.o(.ARM.Collect$$$$00000004)
    __main_after_scatterload                 0x000201b1   Thumb Code     0  entry5.o(.ARM.Collect$$$$00000004)
    _main_clock                              0x000201b1   Thumb Code     0  entry7b.o(.ARM.Collect$$$$00000008)
    _main_cpp_init                           0x000201b1   Thumb Code     0  entry8b.o(.ARM.Collect$$$$0000000A)
    _main_init                               0x000201b1   Thumb Code     0  entry9a.o(.ARM.Collect$$$$0000000B)
    __rt_final_cpp                           0x000201b9   Thumb Code     0  entry10a.o(.ARM.Collect$$$$0000000D)
    __rt_final_exit                          0x000201b9   Thumb Code     0  entry11a.o(.ARM.Collect$$$$0000000F)
    TIMR4_Handler                            0x000201bd   Thumb Code    24  main.o(.text)
    spi_wr                                   0x000201d5   Thumb Code    76  main.o(.text)
    _flush_cb                                0x00020221   Thumb Code   196  main.o(.text)
    read_cb                                  0x000202e5   Thumb Code    36  main.o(.text)
    read_cb_btn                              0x00020309   Thumb Code     6  main.o(.text)
    HexToChar                                0x00020311   Thumb Code    14  main.o(.text)
    main                                     0x00020321   Thumb Code   180  main.o(.text)
    _lcd_init_sturct                         0x000203e9   Thumb Code    96  bsp_lcd_rgb.o(.text)
    LCD_Handler                              0x00020449   Thumb Code    26  bsp_lcd_rgb.o(.text)
    bsp_lcd_rgb_init                         0x00020465   Thumb Code  1302  bsp_lcd_rgb.o(.text)
    lcd_draw_point                           0x0002097d   Thumb Code    26  bsp_lcd_rgb.o(.text)
    LCD_DrawPoint                            0x00020999   Thumb Code    36  bsp_lcd_rgb.o(.text)
    bsp_sfc_config                           0x000209bd   Thumb Code   158  bsp_sfc.o(.text)
    r_dat_bat                                0x00020a5d   Thumb Code    64  bsp_sfc.o(.text)
    SFC_FLASH_PageWrite                      0x00020a9d   Thumb Code    42  bsp_sfc.o(.text)
    SFC_FLASH_BufferWrite                    0x00020ac9   Thumb Code   236  bsp_sfc.o(.text)
    bsp_spi_io_config                        0x00020bb5   Thumb Code   156  bsp_sfc.o(.text)
    Send_Byte                                0x00020c51   Thumb Code   344  bsp_sfc.o(.text)
    Get_Byte                                 0x00020da9   Thumb Code   298  bsp_sfc.o(.text)
    gt_read_data                             0x00020ed5   Thumb Code   184  bsp_sfc.o(.text)
    fputc                                    0x00020f8d   Thumb Code    34  bsp_uart.o(.text)
    bsp_uart0_init                           0x00020fb1   Thumb Code    88  bsp_uart.o(.text)
    bsp_uart3_init                           0x00021009   Thumb Code    96  bsp_uart.o(.text)
    UART3_Handler                            0x00021069   Thumb Code   252  bsp_uart.o(.text)
    gt_put_char                              0x00021165   Thumb Code    14  bsp_uart.o(.text)
    systick_init                             0x00021175   Thumb Code    72  dev_systick.o(.text)
    swm_inctick                              0x000211bd   Thumb Code    16  dev_systick.o(.text)
    swm_gettick                              0x000211cd   Thumb Code    12  dev_systick.o(.text)
    swm_delay_ms                             0x000211d9   Thumb Code    48  dev_systick.o(.text)
    swm_delay_us                             0x00021209   Thumb Code    86  dev_systick.o(.text)
    SysTick_Handler_cb                       0x00021261   Thumb Code     2  dev_systick.o(.text)
    SysTick_Handler                          0x00021265   Thumb Code    18  dev_systick.o(.text)
    GPIOD_Handler                            0x00021279   Thumb Code    46  dev_touch.o(.text)
    touch_read_points                        0x000212a9   Thumb Code     2  dev_touch.o(.text)
    touch_ic_init                            0x000212ad   Thumb Code    72  dev_touch.o(.text)
    GT911_Send_Cfg                           0x000212f5   Thumb Code     4  gt911.o(.text)
    GT911_WR_Reg                             0x000212f9   Thumb Code   104  gt911.o(.text)
    GT911_RD_Reg                             0x00021361   Thumb Code   152  gt911.o(.text)
    GT911_Init                               0x000213f9   Thumb Code   420  gt911.o(.text)
    GT911_Reset_Sequence                     0x000215b1   Thumb Code   174  gt911.o(.text)
    GT911_Scan                               0x00021661   Thumb Code   680  gt911.o(.text)
    GT911_Soft_Reset                         0x00021909   Thumb Code    28  gt911.o(.text)
    SystemCoreClockUpdate                    0x00021925   Thumb Code   200  system_swm341.o(.text)
    SystemInit                               0x000219ed   Thumb Code   408  system_swm341.o(.text)
    switchToPLL                              0x00021b85   Thumb Code   266  system_swm341.o(.text)
    FPU_Enable                               0x00021c91   Thumb Code     2  system_swm341.o(.text)
    switchTo20MHz                            0x00021c95   Thumb Code   210  system_swm341.o(.text)
    switchTo2M5Hz                            0x00021d69   Thumb Code   434  system_swm341.o(.text)
    switchTo40MHz                            0x00021f1d   Thumb Code   210  system_swm341.o(.text)
    switchTo5MHz                             0x00021ff1   Thumb Code   434  system_swm341.o(.text)
    switchToXTAL                             0x000221a5   Thumb Code   676  system_swm341.o(.text)
    PLLInit                                  0x00022449   Thumb Code   496  system_swm341.o(.text)
    switchTo32KHz                            0x00022639   Thumb Code   434  system_swm341.o(.text)
    switchToXTAL_32K                         0x000227ed   Thumb Code   558  system_swm341.o(.text)
    Reset_Handler                            0x00022a1d   Thumb Code     8  startup_swm341.o(.text)
    NMI_Handler                              0x00022a25   Thumb Code     2  startup_swm341.o(.text)
    HardFault_Handler                        0x00022a27   Thumb Code     2  startup_swm341.o(.text)
    MemManage_Handler                        0x00022a29   Thumb Code     2  startup_swm341.o(.text)
    BusFault_Handler                         0x00022a2b   Thumb Code     2  startup_swm341.o(.text)
    UsageFault_Handler                       0x00022a2d   Thumb Code     2  startup_swm341.o(.text)
    SVC_Handler                              0x00022a2f   Thumb Code     2  startup_swm341.o(.text)
    DebugMon_Handler                         0x00022a31   Thumb Code     2  startup_swm341.o(.text)
    PendSV_Handler                           0x00022a33   Thumb Code     2  startup_swm341.o(.text)
    UART0_Handler                            0x00022a37   Thumb Code     2  startup_swm341.o(.text)
    UART1_Handler                            0x00022a39   Thumb Code     2  startup_swm341.o(.text)
    TIMR0_Handler                            0x00022a3b   Thumb Code     2  startup_swm341.o(.text)
    TIMR1_Handler                            0x00022a3d   Thumb Code     2  startup_swm341.o(.text)
    DMA_Handler                              0x00022a3f   Thumb Code     2  startup_swm341.o(.text)
    SPI0_Handler                             0x00022a41   Thumb Code     2  startup_swm341.o(.text)
    PWM0_Handler                             0x00022a43   Thumb Code     2  startup_swm341.o(.text)
    WDT_Handler                              0x00022a45   Thumb Code     2  startup_swm341.o(.text)
    UART2_Handler                            0x00022a47   Thumb Code     2  startup_swm341.o(.text)
    PWM1_Handler                             0x00022a49   Thumb Code     2  startup_swm341.o(.text)
    ADC0_Handler                             0x00022a4b   Thumb Code     2  startup_swm341.o(.text)
    BTIMR0_Handler                           0x00022a4d   Thumb Code     2  startup_swm341.o(.text)
    HALL0_Handler                            0x00022a4f   Thumb Code     2  startup_swm341.o(.text)
    PWM2_Handler                             0x00022a51   Thumb Code     2  startup_swm341.o(.text)
    PWMBRK_Handler                           0x00022a53   Thumb Code     2  startup_swm341.o(.text)
    I2C0_Handler                             0x00022a55   Thumb Code     2  startup_swm341.o(.text)
    CAN0_Handler                             0x00022a57   Thumb Code     2  startup_swm341.o(.text)
    SPI1_Handler                             0x00022a59   Thumb Code     2  startup_swm341.o(.text)
    RTC_Handler                              0x00022a5b   Thumb Code     2  startup_swm341.o(.text)
    PWM3_Handler                             0x00022a5d   Thumb Code     2  startup_swm341.o(.text)
    TIMR2_Handler                            0x00022a5f   Thumb Code     2  startup_swm341.o(.text)
    TIMR3_Handler                            0x00022a63   Thumb Code     2  startup_swm341.o(.text)
    ADC1_Handler                             0x00022a65   Thumb Code     2  startup_swm341.o(.text)
    BOD_Handler                              0x00022a67   Thumb Code     2  startup_swm341.o(.text)
    CORDIC_Handler                           0x00022a69   Thumb Code     2  startup_swm341.o(.text)
    BTIMR1_Handler                           0x00022a6b   Thumb Code     2  startup_swm341.o(.text)
    PWM4_Handler                             0x00022a6d   Thumb Code     2  startup_swm341.o(.text)
    HALL3_Handler                            0x00022a6f   Thumb Code     2  startup_swm341.o(.text)
    BTIMR2_Handler                           0x00022a71   Thumb Code     2  startup_swm341.o(.text)
    I2C1_Handler                             0x00022a73   Thumb Code     2  startup_swm341.o(.text)
    BTIMR3_Handler                           0x00022a75   Thumb Code     2  startup_swm341.o(.text)
    ACMP_Handler                             0x00022a77   Thumb Code     2  startup_swm341.o(.text)
    XTALSTOP_Handler                         0x00022a79   Thumb Code     2  startup_swm341.o(.text)
    FSPI_Handler                             0x00022a7b   Thumb Code     2  startup_swm341.o(.text)
    GPIOA_Handler                            0x00022a7d   Thumb Code     2  startup_swm341.o(.text)
    GPIOB_Handler                            0x00022a7f   Thumb Code     2  startup_swm341.o(.text)
    GPIOC_Handler                            0x00022a81   Thumb Code     2  startup_swm341.o(.text)
    GPIOM_Handler                            0x00022a85   Thumb Code     2  startup_swm341.o(.text)
    GPION_Handler                            0x00022a87   Thumb Code     2  startup_swm341.o(.text)
    GPIOA0_Handler                           0x00022a89   Thumb Code     2  startup_swm341.o(.text)
    GPIOA1_Handler                           0x00022a8b   Thumb Code     2  startup_swm341.o(.text)
    GPIOA5_Handler                           0x00022a8d   Thumb Code     2  startup_swm341.o(.text)
    GPIOA6_Handler                           0x00022a8f   Thumb Code     2  startup_swm341.o(.text)
    GPIOA10_Handler                          0x00022a91   Thumb Code     2  startup_swm341.o(.text)
    GPIOA11_Handler                          0x00022a93   Thumb Code     2  startup_swm341.o(.text)
    GPIOA12_Handler                          0x00022a95   Thumb Code     2  startup_swm341.o(.text)
    GPIOA13_Handler                          0x00022a97   Thumb Code     2  startup_swm341.o(.text)
    GPIOB0_Handler                           0x00022a99   Thumb Code     2  startup_swm341.o(.text)
    GPIOB1_Handler                           0x00022a9b   Thumb Code     2  startup_swm341.o(.text)
    GPIOB2_Handler                           0x00022a9d   Thumb Code     2  startup_swm341.o(.text)
    GPIOC0_Handler                           0x00022a9f   Thumb Code     2  startup_swm341.o(.text)
    GPIOC1_Handler                           0x00022aa1   Thumb Code     2  startup_swm341.o(.text)
    GPIOC2_Handler                           0x00022aa3   Thumb Code     2  startup_swm341.o(.text)
    GPIOC3_Handler                           0x00022aa5   Thumb Code     2  startup_swm341.o(.text)
    GPIOC4_Handler                           0x00022aa7   Thumb Code     2  startup_swm341.o(.text)
    GPIOD3_Handler                           0x00022aa9   Thumb Code     2  startup_swm341.o(.text)
    GPIOD4_Handler                           0x00022aab   Thumb Code     2  startup_swm341.o(.text)
    GPIOD5_Handler                           0x00022aad   Thumb Code     2  startup_swm341.o(.text)
    GPIOD6_Handler                           0x00022aaf   Thumb Code     2  startup_swm341.o(.text)
    GPIOD7_Handler                           0x00022ab1   Thumb Code     2  startup_swm341.o(.text)
    GPIOD8_Handler                           0x00022ab3   Thumb Code     2  startup_swm341.o(.text)
    GPIOC9_Handler                           0x00022ab5   Thumb Code     2  startup_swm341.o(.text)
    GPIOC10_Handler                          0x00022ab7   Thumb Code     2  startup_swm341.o(.text)
    GPIOC11_Handler                          0x00022ab9   Thumb Code     2  startup_swm341.o(.text)
    GPIOC12_Handler                          0x00022abb   Thumb Code     2  startup_swm341.o(.text)
    GPIOM0_Handler                           0x00022abd   Thumb Code     2  startup_swm341.o(.text)
    GPIOM1_Handler                           0x00022abf   Thumb Code     2  startup_swm341.o(.text)
    GPIOM2_Handler                           0x00022ac1   Thumb Code     2  startup_swm341.o(.text)
    GPIOM3_Handler                           0x00022ac3   Thumb Code     2  startup_swm341.o(.text)
    GPIOM4_Handler                           0x00022ac5   Thumb Code     2  startup_swm341.o(.text)
    DIV_Handler                              0x00022ac7   Thumb Code     2  startup_swm341.o(.text)
    GPIOE_Handler                            0x00022acb   Thumb Code     2  startup_swm341.o(.text)
    JPEG_Handler                             0x00022acd   Thumb Code     2  startup_swm341.o(.text)
    SDIO_Handler                             0x00022acf   Thumb Code     2  startup_swm341.o(.text)
    USB_Handler                              0x00022ad1   Thumb Code     2  startup_swm341.o(.text)
    CAN1_Handler                             0x00022ad3   Thumb Code     2  startup_swm341.o(.text)
    BTIMR4_Handler                           0x00022ad7   Thumb Code     2  startup_swm341.o(.text)
    BTIMR5_Handler                           0x00022ad9   Thumb Code     2  startup_swm341.o(.text)
    BTIMR6_Handler                           0x00022adb   Thumb Code     2  startup_swm341.o(.text)
    BTIMR7_Handler                           0x00022add   Thumb Code     2  startup_swm341.o(.text)
    BTIMR8_Handler                           0x00022adf   Thumb Code     2  startup_swm341.o(.text)
    BTIMR9_Handler                           0x00022ae1   Thumb Code     2  startup_swm341.o(.text)
    BTIMR10_Handler                          0x00022ae3   Thumb Code     2  startup_swm341.o(.text)
    BTIMR11_Handler                          0x00022ae5   Thumb Code     2  startup_swm341.o(.text)
    DMA2D_Handler                            0x00022ae7   Thumb Code     2  startup_swm341.o(.text)
    QEI_Handler                              0x00022ae9   Thumb Code     2  startup_swm341.o(.text)
    EXTI_Init                                0x00022af5   Thumb Code    90  swm341_exti.o(.text)
    EXTI_Close                               0x00022b51   Thumb Code    16  swm341_exti.o(.text)
    EXTI_Open                                0x00022b61   Thumb Code    14  swm341_exti.o(.text)
    EXTI_State                               0x00022b71   Thumb Code    10  swm341_exti.o(.text)
    EXTI_RawState                            0x00022b7d   Thumb Code    10  swm341_exti.o(.text)
    EXTI_Clear                               0x00022b89   Thumb Code    10  swm341_exti.o(.text)
    FLASH_Erase                              0x00022b95   Thumb Code    70  swm341_flash.o(.text)
    FLASH_Write                              0x00022bdd   Thumb Code    78  swm341_flash.o(.text)
    Flash_Param_at_xMHz                      0x00022c2d   Thumb Code   166  swm341_flash.o(.text)
    GPIO_Init                                0x00022cd5   Thumb Code   366  swm341_gpio.o(.text)
    GPIO_SetBit                              0x00022e45   Thumb Code    14  swm341_gpio.o(.text)
    GPIO_ClrBit                              0x00022e55   Thumb Code    16  swm341_gpio.o(.text)
    GPIO_InvBit                              0x00022e65   Thumb Code    14  swm341_gpio.o(.text)
    GPIO_GetBit                              0x00022e75   Thumb Code    10  swm341_gpio.o(.text)
    GPIO_SetBits                             0x00022e81   Thumb Code    24  swm341_gpio.o(.text)
    GPIO_ClrBits                             0x00022e99   Thumb Code    26  swm341_gpio.o(.text)
    GPIO_InvBits                             0x00022eb5   Thumb Code    24  swm341_gpio.o(.text)
    GPIO_GetBits                             0x00022ecd   Thumb Code    20  swm341_gpio.o(.text)
    GPIO_AtomicSetBit                        0x00022ee1   Thumb Code    10  swm341_gpio.o(.text)
    GPIO_AtomicClrBit                        0x00022eed   Thumb Code    10  swm341_gpio.o(.text)
    GPIO_AtomicInvBit                        0x00022ef9   Thumb Code    14  swm341_gpio.o(.text)
    GPIO_AtomicSetBits                       0x00022f09   Thumb Code    32  swm341_gpio.o(.text)
    GPIO_AtomicClrBits                       0x00022f29   Thumb Code    34  swm341_gpio.o(.text)
    GPIO_AtomicInvBits                       0x00022f4d   Thumb Code    32  swm341_gpio.o(.text)
    I2C_Init                                 0x00022f6d   Thumb Code   412  swm341_i2c.o(.text)
    I2C_Close                                0x00023109   Thumb Code    10  swm341_i2c.o(.text)
    I2C_Open                                 0x00023115   Thumb Code    10  swm341_i2c.o(.text)
    I2C_Start                                0x00023121   Thumb Code    64  swm341_i2c.o(.text)
    I2C_StartDone                            0x00023161   Thumb Code    10  swm341_i2c.o(.text)
    I2C_IsAck                                0x0002316d   Thumb Code    10  swm341_i2c.o(.text)
    I2C_Stop                                 0x00023179   Thumb Code    52  swm341_i2c.o(.text)
    I2C_StopDone                             0x000231ad   Thumb Code    10  swm341_i2c.o(.text)
    I2C_Write                                0x000231b9   Thumb Code    64  swm341_i2c.o(.text)
    I2C_WriteDone                            0x000231f9   Thumb Code    10  swm341_i2c.o(.text)
    I2C_Read                                 0x00023205   Thumb Code    68  swm341_i2c.o(.text)
    I2C_ReadDone                             0x00023249   Thumb Code    10  swm341_i2c.o(.text)
    I2C_INTEn                                0x00023255   Thumb Code     8  swm341_i2c.o(.text)
    I2C_INTDis                               0x0002325d   Thumb Code    10  swm341_i2c.o(.text)
    I2C_INTClr                               0x00023269   Thumb Code     4  swm341_i2c.o(.text)
    I2C_INTStat                              0x0002326d   Thumb Code    10  swm341_i2c.o(.text)
    LCD_Init                                 0x00023279   Thumb Code   224  swm341_lcd.o(.text)
    LCD_LayerInit                            0x00023359   Thumb Code    58  swm341_lcd.o(.text)
    LCD_SetLayerPos                          0x00023395   Thumb Code    40  swm341_lcd.o(.text)
    LCD_Start                                0x000233bd   Thumb Code    10  swm341_lcd.o(.text)
    LCD_IsBusy                               0x000233c9   Thumb Code     8  swm341_lcd.o(.text)
    LCD_INTEn                                0x000233d1   Thumb Code     6  swm341_lcd.o(.text)
    LCD_INTDis                               0x000233d9   Thumb Code     6  swm341_lcd.o(.text)
    LCD_INTClr                               0x000233e1   Thumb Code     6  swm341_lcd.o(.text)
    LCD_INTStat                              0x000233e9   Thumb Code     8  swm341_lcd.o(.text)
    MPULCD_Init                              0x000233f1   Thumb Code   138  swm341_lcd.o(.text)
    LCD_WR_REG                               0x0002347d   Thumb Code    46  swm341_lcd.o(.text)
    LCD_WR_DATA                              0x000234ad   Thumb Code    46  swm341_lcd.o(.text)
    LCD_WriteReg                             0x000234dd   Thumb Code    90  swm341_lcd.o(.text)
    LCD_ReadReg                              0x00023539   Thumb Code    52  swm341_lcd.o(.text)
    MPULCD_DMAStart                          0x0002356d   Thumb Code    32  swm341_lcd.o(.text)
    MPULCD_DMABusy                           0x0002358d   Thumb Code     8  swm341_lcd.o(.text)
    PORT_Init                                0x00023595   Thumb Code    74  swm341_port.o(.text)
    SDRAM_Init                               0x000235e1   Thumb Code   214  swm341_sdram.o(.text)
    SDRAM_Enable                             0x000236b9   Thumb Code   216  swm341_sdram.o(.text)
    SDRAM_Disable                            0x00023791   Thumb Code   216  swm341_sdram.o(.text)
    SFC_Init                                 0x00023869   Thumb Code   150  swm341_sfc.o(.text)
    SFC_ReadJEDEC                            0x00023901   Thumb Code    62  swm341_sfc.o(.text)
    SFC_Erase                                0x00023941   Thumb Code   190  swm341_sfc.o(.text)
    SFC_EraseEx                              0x00023a01   Thumb Code   226  swm341_sfc.o(.text)
    SFC_FlashBusy                            0x00023ae5   Thumb Code    66  swm341_sfc.o(.text)
    SFC_Write                                0x00023b29   Thumb Code   234  swm341_sfc.o(.text)
    SFC_Read                                 0x00023c15   Thumb Code   154  swm341_sfc.o(.text)
    SFC_ReadStatusReg                        0x00023cb1   Thumb Code    64  swm341_sfc.o(.text)
    SFC_WriteStatusReg                       0x00023cf1   Thumb Code    72  swm341_sfc.o(.text)
    SFC_QuadSwitch                           0x00023d39   Thumb Code   196  swm341_sfc.o(.text)
    SFC_QuadState                            0x00023dfd   Thumb Code    66  swm341_sfc.o(.text)
    TIMR_Init                                0x00023e41   Thumb Code   904  swm341_timr.o(.text)
    TIMR_Stop                                0x000241c9   Thumb Code   450  swm341_timr.o(.text)
    TIMR_Start                               0x0002438d   Thumb Code   400  swm341_timr.o(.text)
    TIMR_Halt                                0x0002451d   Thumb Code     6  swm341_timr.o(.text)
    TIMR_Resume                              0x00024525   Thumb Code     6  swm341_timr.o(.text)
    TIMR_GetCurValue                         0x0002452d   Thumb Code     4  swm341_timr.o(.text)
    TIMR_INTEn                               0x00024531   Thumb Code    10  swm341_timr.o(.text)
    TIMR_INTDis                              0x0002453d   Thumb Code    10  swm341_timr.o(.text)
    TIMR_INTClr                              0x00024549   Thumb Code     6  swm341_timr.o(.text)
    TIMR_INTStat                             0x00024551   Thumb Code     8  swm341_timr.o(.text)
    TIMR_OC_Init                             0x00024559   Thumb Code   740  swm341_timr.o(.text)
    TIMR_OC_OutputEn                         0x0002483d   Thumb Code    10  swm341_timr.o(.text)
    TIMR_OC_OutputDis                        0x00024849   Thumb Code    24  swm341_timr.o(.text)
    TIMR_OC_SetMatch                         0x00024861   Thumb Code     4  swm341_timr.o(.text)
    TIMR_OC_GetMatch                         0x00024865   Thumb Code     4  swm341_timr.o(.text)
    TIMR_OC_INTEn                            0x00024869   Thumb Code    10  swm341_timr.o(.text)
    TIMR_OC_INTDis                           0x00024875   Thumb Code    10  swm341_timr.o(.text)
    TIMR_OC_INTClr                           0x00024881   Thumb Code     6  swm341_timr.o(.text)
    TIMR_OC_INTStat                          0x00024889   Thumb Code     8  swm341_timr.o(.text)
    TIMR_IC_Init                             0x00024891   Thumb Code   184  swm341_timr.o(.text)
    TIMR_IC_GetCaptureH                      0x00024949   Thumb Code     4  swm341_timr.o(.text)
    TIMR_IC_GetCaptureL                      0x0002494d   Thumb Code     4  swm341_timr.o(.text)
    TIMR_IC_CaptureH_INTEn                   0x00024951   Thumb Code    10  swm341_timr.o(.text)
    TIMR_IC_CaptureH_INTDis                  0x0002495d   Thumb Code    10  swm341_timr.o(.text)
    TIMR_IC_CaptureH_INTClr                  0x00024969   Thumb Code     6  swm341_timr.o(.text)
    TIMR_IC_CaptureH_INTStat                 0x00024971   Thumb Code     8  swm341_timr.o(.text)
    TIMR_IC_CaptureL_INTEn                   0x00024979   Thumb Code    10  swm341_timr.o(.text)
    TIMR_IC_CaptureL_INTDis                  0x00024985   Thumb Code    10  swm341_timr.o(.text)
    TIMR_IC_CaptureL_INTClr                  0x00024991   Thumb Code     6  swm341_timr.o(.text)
    TIMR_IC_CaptureL_INTStat                 0x00024999   Thumb Code     8  swm341_timr.o(.text)
    UART_Init                                0x000249a1   Thumb Code   368  swm341_uart.o(.text)
    UART_Close                               0x00024b21   Thumb Code    10  swm341_uart.o(.text)
    UART_Open                                0x00024b2d   Thumb Code    10  swm341_uart.o(.text)
    UART_WriteByte                           0x00024b39   Thumb Code     4  swm341_uart.o(.text)
    UART_ReadByte                            0x00024b3d   Thumb Code    16  swm341_uart.o(.text)
    UART_IsTXBusy                            0x00024b4d   Thumb Code    10  swm341_uart.o(.text)
    UART_IsRXFIFOEmpty                       0x00024b59   Thumb Code    10  swm341_uart.o(.text)
    UART_IsTXFIFOFull                        0x00024b65   Thumb Code     8  swm341_uart.o(.text)
    UART_SetBaudrate                         0x00024b6d   Thumb Code    40  swm341_uart.o(.text)
    UART_GetBaudrate                         0x00024b95   Thumb Code    38  swm341_uart.o(.text)
    UART_CTSConfig                           0x00024bbd   Thumb Code    20  swm341_uart.o(.text)
    UART_CTSLineState                        0x00024bd1   Thumb Code     8  swm341_uart.o(.text)
    UART_RTSConfig                           0x00024bd9   Thumb Code    30  swm341_uart.o(.text)
    UART_RTSLineState                        0x00024bf9   Thumb Code     8  swm341_uart.o(.text)
    UART_LINConfig                           0x00024c01   Thumb Code    54  swm341_uart.o(.text)
    UART_LINGenerate                         0x00024c39   Thumb Code    10  swm341_uart.o(.text)
    UART_LINIsDetected                       0x00024c45   Thumb Code     8  swm341_uart.o(.text)
    UART_LINIsGenerated                      0x00024c4d   Thumb Code     8  swm341_uart.o(.text)
    UART_ABRStart                            0x00024c55   Thumb Code    72  swm341_uart.o(.text)
    UART_ABRIsDone                           0x00024c9d   Thumb Code    24  swm341_uart.o(.text)
    UART_INTEn                               0x00024cb5   Thumb Code     8  swm341_uart.o(.text)
    UART_INTDis                              0x00024cbd   Thumb Code    10  swm341_uart.o(.text)
    UART_INTClr                              0x00024cc9   Thumb Code    16  swm341_uart.o(.text)
    UART_INTStat                             0x00024cd9   Thumb Code    56  swm341_uart.o(.text)
    WDT_Init                                 0x00024d11   Thumb Code   116  swm341_wdt.o(.text)
    WDT_Stop                                 0x00024d85   Thumb Code    10  swm341_wdt.o(.text)
    WDT_Start                                0x00024d91   Thumb Code    10  swm341_wdt.o(.text)
    WDT_Feed                                 0x00024d9d   Thumb Code     6  swm341_wdt.o(.text)
    WDT_INTClr                               0x00024da5   Thumb Code     6  swm341_wdt.o(.text)
    WDT_INTStat                              0x00024dad   Thumb Code     4  swm341_wdt.o(.text)
    gt_port_disp_init                        0x00024db1   Thumb Code    70  gt_port_disp.o(.text)
    gt_port_indev_init                       0x00024df9   Thumb Code    70  gt_port_indev.o(.text)
    gt_port_src_init                         0x00024e41   Thumb Code    14  gt_port_src.o(.text)
    gt_port_vf_init                          0x00024e51   Thumb Code    30  gt_port_vf.o(.text)
    gt_disp_stack_go_back                    0x00024e71   Thumb Code   584  gt_disp.o(.text)
    gt_disp_get_scr                          0x000250d9   Thumb Code    16  gt_disp.o(.text)
    gt_disp_load_scr_anim                    0x000250e9   Thumb Code   682  gt_disp.o(.text)
    gt_disp_stack_load_scr                   0x00025395   Thumb Code    90  gt_disp.o(.text)
    gt_disp_stack_load_scr_anim_st           0x000253f1   Thumb Code    66  gt_disp.o(.text)
    gt_disp_stack_load_scr_anim              0x00025435   Thumb Code    86  gt_disp.o(.text)
    gt_disp_stack_push_scr_only_st           0x0002548d   Thumb Code   448  gt_disp.o(.text)
    gt_disp_invalid_area                     0x00025699   Thumb Code   114  gt_disp.o(.text)
    gt_disp_load_scr                         0x0002570d   Thumb Code    28  gt_disp.o(.text)
    gt_disp_set_scr                          0x00025729   Thumb Code    16  gt_disp.o(.text)
    gt_disp_ref_area                         0x00025739   Thumb Code  2152  gt_disp.o(.text)
    gt_disp_get_layer_top                    0x0002616d   Thumb Code    16  gt_disp.o(.text)
    gt_disp_get_area_act                     0x0002617d   Thumb Code    78  gt_disp.o(.text)
    gt_disp_get_area_max                     0x000261cd   Thumb Code    78  gt_disp.o(.text)
    gt_disp_scroll_area_act                  0x0002621d   Thumb Code   256  gt_disp.o(.text)
    gt_draw_arch                             0x000264b1   Thumb Code  2062  gt_draw.o(.text)
    gt_draw_line                             0x00026cc1   Thumb Code   190  gt_draw.o(.text)
    draw_bg                                  0x00026d81   Thumb Code  2168  gt_draw.o(.text)
    draw_text                                0x000280ed   Thumb Code  5534  gt_draw.o(.text)
    draw_bg_img                              0x0002968d   Thumb Code   716  gt_draw.o(.text)
    draw_focus                               0x00029959   Thumb Code   102  gt_draw.o(.text)
    gt_obj_add_event_cb                      0x00029ed5   Thumb Code   268  gt_event.o(.text)
    gt_event_send                            0x0002a005   Thumb Code   272  gt_event.o(.text)
    gt_event_send_to_childs                  0x0002a141   Thumb Code   112  gt_event.o(.text)
    gt_event_send_by_id                      0x0002a1c9   Thumb Code    32  gt_event.o(.text)
    gt_event_get_code                        0x0002a1e9   Thumb Code     4  gt_event.o(.text)
    gt_fs_get_ext                            0x0002a1ed   Thumb Code   180  gt_fs.o(.text)
    gt_fs_get_src_type                       0x0002a2a1   Thumb Code    50  gt_fs.o(.text)
    gt_fs_open                               0x0002a2d5   Thumb Code    80  gt_fs.o(.text)
    gt_fs_read                               0x0002a325   Thumb Code    40  gt_fs.o(.text)
    gt_fs_seek                               0x0002a34d   Thumb Code    36  gt_fs.o(.text)
    gt_fs_tell                               0x0002a371   Thumb Code    24  gt_fs.o(.text)
    gt_fs_write                              0x0002a389   Thumb Code    40  gt_fs.o(.text)
    gt_fs_read_img_offset                    0x0002a3b1   Thumb Code    74  gt_fs.o(.text)
    gt_fs_read_img_wh                        0x0002a3fd   Thumb Code   110  gt_fs.o(.text)
    gt_fs_close                              0x0002a46d   Thumb Code    64  gt_fs.o(.text)
    gt_graph_get_gray                        0x0002a4f9   Thumb Code    94  gt_graph_base.o(.text)
    gt_graph_init_rect_attr                  0x0002a559   Thumb Code    26  gt_graph_base.o(.text)
    gt_graph_init_line_attr                  0x0002a575   Thumb Code     8  gt_graph_base.o(.text)
    gt_graph_init_arch_attr                  0x0002a57d   Thumb Code     8  gt_graph_base.o(.text)
    gt_graph_init_circle_attr                0x0002a585   Thumb Code     8  gt_graph_base.o(.text)
    gt_init                                  0x0002a58d   Thumb Code    62  gt_handler.o(.text)
    gt_task_handler                          0x0002a5cd   Thumb Code    20  gt_handler.o(.text)
    _gt_img_decoder_init                     0x0002a5e1   Thumb Code   108  gt_img_decoder.o(.text)
    gt_img_decoder_create                    0x0002a64d   Thumb Code    44  gt_img_decoder.o(.text)
    gt_img_decoder_set_info_cb               0x0002a679   Thumb Code     4  gt_img_decoder.o(.text)
    gt_img_decoder_set_open_cb               0x0002a6b9   Thumb Code     4  gt_img_decoder.o(.text)
    gt_img_decoder_set_read_line_cb          0x0002a6f9   Thumb Code     4  gt_img_decoder.o(.text)
    gt_img_decoder_set_close_cb              0x0002a755   Thumb Code     4  gt_img_decoder.o(.text)
    gt_img_decoder_register                  0x0002a765   Thumb Code    22  gt_img_decoder.o(.text)
    gt_img_decoder_get_type                  0x0002a77d   Thumb Code     4  gt_img_decoder.o(.text)
    gt_img_decoder_get_info                  0x0002a781   Thumb Code    62  gt_img_decoder.o(.text)
    gt_img_decoder_open                      0x0002a7c1   Thumb Code   142  gt_img_decoder.o(.text)
    gt_img_decoder_read_line                 0x0002a851   Thumb Code   160  gt_img_decoder.o(.text)
    gt_img_decoder_close                     0x0002a921   Thumb Code    68  gt_img_decoder.o(.text)
    gt_indev_get_key                         0x0002a995   Thumb Code    12  gt_indev.o(.text)
    gt_indev_get_point                       0x0002a9a1   Thumb Code    12  gt_indev.o(.text)
    gt_indev_get_point_act                   0x0002a9ad   Thumb Code    10  gt_indev.o(.text)
    gt_indev_get_point_newly                 0x0002a9b9   Thumb Code    10  gt_indev.o(.text)
    gt_indev_get_gesture                     0x0002a9c5   Thumb Code     8  gt_indev.o(.text)
    gt_indev_handler                         0x0002a9cd   Thumb Code  1864  gt_indev.o(.text)
    gt_indev_is_disabled                     0x0002b13d   Thumb Code    16  gt_indev.o(.text)
    gt_indev_set_disabled                    0x0002b14d   Thumb Code    20  gt_indev.o(.text)
    _gt_indev_remove_want_delate_target      0x0002b161   Thumb Code    78  gt_indev.o(.text)
    gt_layout_row_grow                       0x0002b56d   Thumb Code   104  gt_layout.o(.text)
    gt_mem_init                              0x0002b741   Thumb Code    36  gt_mem.o(.text)
    gt_mem_deinit                            0x0002b765   Thumb Code    14  gt_mem.o(.text)
    _mem_malloc                              0x0002b775   Thumb Code    20  gt_mem.o(.text)
    _mem_realloc                             0x0002b789   Thumb Code    22  gt_mem.o(.text)
    _mem_free                                0x0002b7a1   Thumb Code    20  gt_mem.o(.text)
    gt_memcpy                                0x0002b7b5   Thumb Code    38  gt_mem.o(.text)
    gt_memmove                               0x0002b7dd   Thumb Code    12  gt_mem.o(.text)
    gt_memset_0                              0x0002b7e9   Thumb Code    12  gt_mem.o(.text)
    gt_memset                                0x0002b7f5   Thumb Code    18  gt_mem.o(.text)
    gt_memcmp                                0x0002b809   Thumb Code     4  gt_mem.o(.text)
    gt_mem_check_used                        0x0002b80d   Thumb Code   136  gt_mem.o(.text)
    gt_area_copy                             0x0002b8a5   Thumb Code    10  gt_obj_pos.o(.text)
    gt_find_clicked_obj_by_point             0x0002b8b1   Thumb Code    42  gt_obj_pos.o(.text)
    _gt_obj_focus_clicked                    0x0002b9ed   Thumb Code    82  gt_obj_pos.o(.text)
    gt_find_clicked_obj_by_focus             0x0002ba41   Thumb Code    16  gt_obj_pos.o(.text)
    gt_obj_next_focus_change                 0x0002ba51   Thumb Code    52  gt_obj_pos.o(.text)
    gt_obj_prev_focus_change                 0x0002bad9   Thumb Code   236  gt_obj_pos.o(.text)
    gt_obj_check_scr                         0x0002bbc5   Thumb Code    84  gt_obj_pos.o(.text)
    gt_obj_get_click_point_by_phy_point      0x0002bc19   Thumb Code    40  gt_obj_pos.o(.text)
    _scroll_ready_cb                         0x0002bc41   Thumb Code    10  gt_obj_scroll.o(.text)
    gt_obj_scroll_to                         0x0002bc4d   Thumb Code   308  gt_obj_scroll.o(.text)
    gt_obj_scroll_to_x                       0x0002bded   Thumb Code     8  gt_obj_scroll.o(.text)
    gt_obj_scroll_to_y                       0x0002bdf5   Thumb Code    10  gt_obj_scroll.o(.text)
    gt_obj_scroll_get_x                      0x0002be01   Thumb Code     6  gt_obj_scroll.o(.text)
    gt_obj_scroll_get_y                      0x0002be09   Thumb Code     6  gt_obj_scroll.o(.text)
    _gt_obj_set_process_point                0x0002be11   Thumb Code     6  gt_obj_scroll.o(.text)
    _gt_obj_set_process_scroll_xy            0x0002be19   Thumb Code    14  gt_obj_scroll.o(.text)
    gt_refr_timer                            0x0002be29   Thumb Code   104  gt_refr.o(.text)
    gt_scr_stack_get_init_func               0x0002bea1   Thumb Code   136  gt_scr_stack.o(.text)
    gt_scr_stack_register_id_list            0x0002bf29   Thumb Code   144  gt_scr_stack.o(.text)
    gt_scr_stack_set_depth                   0x0002bfb9   Thumb Code   112  gt_scr_stack.o(.text)
    gt_scr_stack_set_home_scr_id             0x0002c029   Thumb Code    40  gt_scr_stack.o(.text)
    gt_scr_stack_set_home_scr                0x0002c051   Thumb Code    12  gt_scr_stack.o(.text)
    gt_scr_stack_get_home_scr                0x0002c05d   Thumb Code    10  gt_scr_stack.o(.text)
    gt_scr_stack_get_home_scr_id             0x0002c069   Thumb Code    22  gt_scr_stack.o(.text)
    gt_scr_stack_is_home_scr_alive           0x0002c081   Thumb Code    14  gt_scr_stack.o(.text)
    gt_scr_stack_push                        0x0002c091   Thumb Code    20  gt_scr_stack.o(.text)
    gt_scr_stack_pop                         0x0002c0a5   Thumb Code   186  gt_scr_stack.o(.text)
    gt_scr_stack_peek                        0x0002c161   Thumb Code    16  gt_scr_stack.o(.text)
    gt_scr_stack_get_prev_scr                0x0002c171   Thumb Code   124  gt_scr_stack.o(.text)
    gt_scr_stack_is_prev                     0x0002c209   Thumb Code    88  gt_scr_stack.o(.text)
    gt_scr_stack_is_current                  0x0002c279   Thumb Code    88  gt_scr_stack.o(.text)
    gt_scr_stack_get_prev_id                 0x0002c2e9   Thumb Code    80  gt_scr_stack.o(.text)
    gt_scr_stack_get_prev_id_by              0x0002c355   Thumb Code    30  gt_scr_stack.o(.text)
    gt_scr_stack_get_prev_scr_by             0x0002c375   Thumb Code   128  gt_scr_stack.o(.text)
    gt_scr_stack_has_before                  0x0002c415   Thumb Code    30  gt_scr_stack.o(.text)
    gt_scr_stack_is_empty                    0x0002c445   Thumb Code    16  gt_scr_stack.o(.text)
    gt_scr_stack_is_full                     0x0002c455   Thumb Code    16  gt_scr_stack.o(.text)
    gt_scr_stack_get_count                   0x0002c465   Thumb Code    16  gt_scr_stack.o(.text)
    gt_scr_stack_clear                       0x0002c475   Thumb Code    34  gt_scr_stack.o(.text)
    gt_obj_set_area                          0x0002c51d   Thumb Code   224  gt_style.o(.text)
    gt_obj_pos_change                        0x0002c779   Thumb Code   224  gt_style.o(.text)
    _gt_obj_is_ignore_calc_max_area          0x0002c865   Thumb Code    22  gt_style.o(.text)
    gt_obj_set_pos                           0x0002c87d   Thumb Code   132  gt_style.o(.text)
    _gt_obj_move_child_by                    0x0002c911   Thumb Code   124  gt_style.o(.text)
    gt_obj_get_virtual                       0x0002c9a5   Thumb Code    76  gt_style.o(.text)
    gt_obj_set_size                          0x0002ca05   Thumb Code   176  gt_style.o(.text)
    gt_obj_size_change                       0x0002cac5   Thumb Code   140  gt_style.o(.text)
    gt_obj_set_x                             0x0002cb65   Thumb Code   104  gt_style.o(.text)
    gt_obj_set_y                             0x0002cbdd   Thumb Code   104  gt_style.o(.text)
    gt_obj_set_w                             0x0002cc55   Thumb Code    92  gt_style.o(.text)
    gt_obj_set_h                             0x0002ccc1   Thumb Code    92  gt_style.o(.text)
    gt_obj_set_opa                           0x0002cd2d   Thumb Code    84  gt_style.o(.text)
    gt_obj_get_x                             0x0002cd81   Thumb Code    72  gt_style.o(.text)
    gt_obj_get_y                             0x0002cdd9   Thumb Code    72  gt_style.o(.text)
    gt_obj_get_w                             0x0002ce31   Thumb Code    64  gt_style.o(.text)
    gt_obj_get_h                             0x0002ce81   Thumb Code    64  gt_style.o(.text)
    gt_obj_set_visible                       0x0002ced1   Thumb Code   106  gt_style.o(.text)
    gt_obj_get_visible                       0x0002cf3d   Thumb Code    72  gt_style.o(.text)
    gt_obj_set_disabled                      0x0002cf99   Thumb Code   126  gt_style.o(.text)
    gt_obj_is_disabled                       0x0002d019   Thumb Code    76  gt_style.o(.text)
    gt_obj_set_focus                         0x0002d079   Thumb Code   102  gt_style.o(.text)
    gt_obj_is_focus                          0x0002d0e1   Thumb Code    76  gt_style.o(.text)
    gt_obj_set_focus_disabled                0x0002d13d   Thumb Code   116  gt_style.o(.text)
    gt_obj_is_focus_disabled                 0x0002d1b1   Thumb Code    76  gt_style.o(.text)
    gt_obj_child_set_prop                    0x0002d219   Thumb Code   868  gt_style.o(.text)
    gt_obj_set_fixed                         0x0002d595   Thumb Code    86  gt_style.o(.text)
    gt_obj_set_overflow                      0x0002d5ed   Thumb Code    86  gt_style.o(.text)
    gt_obj_set_inside                        0x0002d645   Thumb Code    86  gt_style.o(.text)
    gt_obj_set_untouchability                0x0002d69d   Thumb Code    86  gt_style.o(.text)
    gt_obj_set_state                         0x0002d6f5   Thumb Code    80  gt_style.o(.text)
    gt_obj_get_state                         0x0002d759   Thumb Code    76  gt_style.o(.text)
    gt_obj_get_fixed                         0x0002d7b9   Thumb Code    76  gt_style.o(.text)
    gt_obj_get_overflow                      0x0002d819   Thumb Code    76  gt_style.o(.text)
    gt_obj_get_inside                        0x0002d879   Thumb Code    76  gt_style.o(.text)
    gt_obj_set_septal_line                   0x0002d8d9   Thumb Code    80  gt_style.o(.text)
    gt_obj_get_septal_line                   0x0002d941   Thumb Code    80  gt_style.o(.text)
    gt_obj_set_mask_effect                   0x0002d9a9   Thumb Code    76  gt_style.o(.text)
    gt_obj_get_mask_effect                   0x0002da0d   Thumb Code    76  gt_style.o(.text)
    gt_obj_set_touch_parent                  0x0002da71   Thumb Code    80  gt_style.o(.text)
    gt_obj_get_touch_parent                  0x0002dad9   Thumb Code    76  gt_style.o(.text)
    gt_obj_set_trigger_mode                  0x0002db3d   Thumb Code    84  gt_style.o(.text)
    gt_obj_get_trigger_mode                  0x0002dba9   Thumb Code    76  gt_style.o(.text)
    gt_obj_set_virtual                       0x0002dc0d   Thumb Code    80  gt_style.o(.text)
    gt_obj_set_scroll_dir                    0x0002dc71   Thumb Code    92  gt_style.o(.text)
    gt_obj_get_scroll_dir                    0x0002dce5   Thumb Code    10  gt_style.o(.text)
    gt_obj_is_scroll_dir                     0x0002dcf1   Thumb Code    18  gt_style.o(.text)
    gt_obj_set_scroll_lr                     0x0002dd05   Thumb Code    18  gt_style.o(.text)
    gt_obj_is_scroll_left                    0x0002dd19   Thumb Code    16  gt_style.o(.text)
    gt_obj_is_scroll_right                   0x0002dd29   Thumb Code    10  gt_style.o(.text)
    gt_obj_set_scroll_ud                     0x0002dd35   Thumb Code    18  gt_style.o(.text)
    gt_obj_is_scroll_up                      0x0002dd49   Thumb Code    16  gt_style.o(.text)
    gt_obj_is_scroll_down                    0x0002dd59   Thumb Code    10  gt_style.o(.text)
    gt_obj_set_scroll_snap_x                 0x0002dd65   Thumb Code    18  gt_style.o(.text)
    gt_obj_set_scroll_snap_y                 0x0002dd79   Thumb Code    20  gt_style.o(.text)
    gt_obj_get_scroll_snap_x                 0x0002dd8d   Thumb Code     8  gt_style.o(.text)
    gt_obj_get_scroll_snap_y                 0x0002dd95   Thumb Code    10  gt_style.o(.text)
    gt_obj_set_bubble_notify                 0x0002dda1   Thumb Code    80  gt_style.o(.text)
    gt_obj_is_bubble_notify                  0x0002de0d   Thumb Code    76  gt_style.o(.text)
    gt_obj_is_untouchability                 0x0002de71   Thumb Code    10  gt_style.o(.text)
    gt_obj_set_reduce                        0x0002de7d   Thumb Code    68  gt_style.o(.text)
    gt_obj_get_reduce                        0x0002ded5   Thumb Code    72  gt_style.o(.text)
    gt_obj_set_radius                        0x0002df31   Thumb Code    64  gt_style.o(.text)
    gt_obj_get_radius                        0x0002df85   Thumb Code    68  gt_style.o(.text)
    gt_obj_set_row_layout                    0x0002dfdd   Thumb Code   132  gt_style.o(.text)
    gt_obj_set_grow_invert                   0x0002e079   Thumb Code    96  gt_style.o(.text)
    _gt_timer_core_init                      0x0002e0f1   Thumb Code    18  gt_timer.o(.text)
    _gt_timer_create                         0x0002e105   Thumb Code   144  gt_timer.o(.text)
    _gt_timer_set_callback                   0x0002e1b5   Thumb Code    64  gt_timer.o(.text)
    _gt_timer_del                            0x0002e20d   Thumb Code    92  gt_timer.o(.text)
    _gt_timer_set_paused                     0x0002e279   Thumb Code   108  gt_timer.o(.text)
    _gt_timer_set_repeat_count               0x0002e2fd   Thumb Code    72  gt_timer.o(.text)
    _gt_timer_set_user_data                  0x0002e361   Thumb Code    64  gt_timer.o(.text)
    _gt_timer_handler                        0x0002e3b9   Thumb Code   152  gt_timer.o(.text)
    _gt_timer_get_laster_timer               0x0002e451   Thumb Code    12  gt_timer.o(.text)
    _gt_timer_get_repeat_count               0x0002e45d   Thumb Code    68  gt_timer.o(.text)
    _gt_timer_set_period                     0x0002e4bd   Thumb Code    64  gt_timer.o(.text)
    _gt_timer_get_period                     0x0002e515   Thumb Code    64  gt_timer.o(.text)
    _gt_timer_get_paused                     0x0002e56d   Thumb Code    68  gt_timer.o(.text)
    _gt_timer_get_user_data                  0x0002e5c9   Thumb Code    64  gt_timer.o(.text)
    _gt_extra_init                           0x0002e621   Thumb Code    14  gt_extra.o(.text)
    gt_draw_blend                            0x0002e631   Thumb Code   504  gt_draw_blend.o(.text)
    gt_draw_blend_text                       0x0002e829   Thumb Code  1448  gt_draw_blend.o(.text)
    gt_draw_blend_with_rgb565_opacity        0x0002edd1   Thumb Code  2386  gt_draw_blend_with_rgb565.o(.text)
    gt_draw_blend_with_rgb565_no_opacity     0x0002f725   Thumb Code  1770  gt_draw_blend_with_rgb565.o(.text)
    gt_sjpg_init                             0x0002fe11   Thumb Code    72  gt_sjpg.o(.text)
    jd_prepare                               0x000304f1   Thumb Code  4262  tjpgd.o(.text)
    jd_decomp                                0x00031599   Thumb Code  6810  tjpgd.o(.text)
    gt_png_init                              0x00033729   Thumb Code    72  gt_png.o(.text)
    lodepng_load_file                        0x00033c15   Thumb Code   194  lodepng.o(.text)
    lodepng_save_file                        0x00033cd9   Thumb Code    54  lodepng.o(.text)
    lodepng_inflate                          0x00033d11   Thumb Code    44  lodepng.o(.text)
    lodepng_zlib_decompress                  0x00035181   Thumb Code    44  lodepng.o(.text)
    lodepng_decompress_settings_init         0x0003532d   Thumb Code    16  lodepng.o(.text)
    lodepng_crc32                            0x0003533d   Thumb Code   200  lodepng.o(.text)
    lodepng_chunk_length                     0x00035405   Thumb Code     6  lodepng.o(.text)
    lodepng_chunk_type                       0x0003540d   Thumb Code    22  lodepng.o(.text)
    lodepng_chunk_type_equals                0x00035425   Thumb Code   120  lodepng.o(.text)
    lodepng_chunk_ancillary                  0x0003549d   Thumb Code     8  lodepng.o(.text)
    lodepng_chunk_private                    0x000354a5   Thumb Code     8  lodepng.o(.text)
    lodepng_chunk_safetocopy                 0x000354ad   Thumb Code     8  lodepng.o(.text)
    lodepng_chunk_data                       0x000354b5   Thumb Code     4  lodepng.o(.text)
    lodepng_chunk_data_const                 0x000354b9   Thumb Code     4  lodepng.o(.text)
    lodepng_chunk_check_crc                  0x000354bd   Thumb Code   258  lodepng.o(.text)
    lodepng_chunk_generate_crc               0x000355c1   Thumb Code   234  lodepng.o(.text)
    lodepng_chunk_next                       0x000356ad   Thumb Code   116  lodepng.o(.text)
    lodepng_chunk_next_const                 0x00035721   Thumb Code   116  lodepng.o(.text)
    lodepng_chunk_find                       0x00035795   Thumb Code   274  lodepng.o(.text)
    lodepng_chunk_find_const                 0x000358a9   Thumb Code   274  lodepng.o(.text)
    lodepng_chunk_append                     0x000359bd   Thumb Code   250  lodepng.o(.text)
    lodepng_chunk_create                     0x00035ab9   Thumb Code   470  lodepng.o(.text)
    lodepng_color_mode_init                  0x00035c91   Thumb Code    24  lodepng.o(.text)
    lodepng_color_mode_cleanup               0x00035ca9   Thumb Code    30  lodepng.o(.text)
    lodepng_palette_clear                    0x00035cc9   Thumb Code    30  lodepng.o(.text)
    lodepng_color_mode_copy                  0x00035ce9   Thumb Code   100  lodepng.o(.text)
    lodepng_color_mode_make                  0x00035d4d   Thumb Code    20  lodepng.o(.text)
    lodepng_palette_add                      0x00035d61   Thumb Code   328  lodepng.o(.text)
    lodepng_get_bpp                          0x00035ea9   Thumb Code    40  lodepng.o(.text)
    lodepng_get_channels                     0x00035ed1   Thumb Code    30  lodepng.o(.text)
    lodepng_is_greyscale_type                0x00035ef1   Thumb Code    14  lodepng.o(.text)
    lodepng_is_alpha_type                    0x00035f01   Thumb Code     8  lodepng.o(.text)
    lodepng_is_palette_type                  0x00035f09   Thumb Code    12  lodepng.o(.text)
    lodepng_has_palette_alpha                0x00035f15   Thumb Code   112  lodepng.o(.text)
    lodepng_can_have_alpha                   0x00035f85   Thumb Code   116  lodepng.o(.text)
    lodepng_get_raw_size                     0x00035ff9   Thumb Code    64  lodepng.o(.text)
    lodepng_add_text                         0x00036039   Thumb Code    90  lodepng.o(.text)
    lodepng_clear_text                       0x000361cd   Thumb Code     2  lodepng.o(.text)
    lodepng_clear_itext                      0x0003624d   Thumb Code     2  lodepng.o(.text)
    lodepng_add_itext                        0x00036319   Thumb Code    80  lodepng.o(.text)
    lodepng_set_icc                          0x000365c5   Thumb Code   228  lodepng.o(.text)
    lodepng_clear_icc                        0x000366a9   Thumb Code    60  lodepng.o(.text)
    lodepng_info_init                        0x000366e5   Thumb Code    78  lodepng.o(.text)
    lodepng_info_cleanup                     0x00036735   Thumb Code   166  lodepng.o(.text)
    lodepng_info_copy                        0x000367dd   Thumb Code  1130  lodepng.o(.text)
    lodepng_convert                          0x00036c49   Thumb Code 10264  lodepng.o(.text)
    lodepng_convert_rgb                      0x00039611   Thumb Code   314  lodepng.o(.text)
    lodepng_inspect                          0x0003974d   Thumb Code   734  lodepng.o(.text)
    lodepng_inspect_chunk                    0x00039a2d   Thumb Code  1310  lodepng.o(.text)
    lodepng_decode                           0x0003aab9   Thumb Code  7068  lodepng.o(.text)
    lodepng_decode_memory                    0x0003c655   Thumb Code   198  lodepng.o(.text)
    lodepng_state_init                       0x0003c71d   Thumb Code   130  lodepng.o(.text)
    lodepng_state_cleanup                    0x0003c7a1   Thumb Code    40  lodepng.o(.text)
    lodepng_decode32                         0x0003c7c9   Thumb Code    30  lodepng.o(.text)
    lodepng_decode24                         0x0003c7e9   Thumb Code    30  lodepng.o(.text)
    lodepng_decode_file                      0x0003c809   Thumb Code    96  lodepng.o(.text)
    lodepng_decode32_file                    0x0003c869   Thumb Code    96  lodepng.o(.text)
    lodepng_decode24_file                    0x0003c8c9   Thumb Code    96  lodepng.o(.text)
    lodepng_decoder_settings_init            0x0003c929   Thumb Code    28  lodepng.o(.text)
    lodepng_state_copy                       0x0003c945   Thumb Code   256  lodepng.o(.text)
    lodepng_error_text                       0x0003ca45   Thumb Code    28  lodepng.o(.text)
    gt_font_info_init                        0x0003e7b9   Thumb Code    44  gt_font.o(.text)
    gt_project_encoding_get                  0x0003e7e5   Thumb Code    12  gt_font.o(.text)
    gt_font_info_update_font_thick           0x0003e7f1   Thumb Code    26  gt_font.o(.text)
    _gt_gb_font_one_char_code_len_get        0x0003e80d   Thumb Code   124  gt_font.o(.text)
    gt_unicode_to_utf8                       0x0003e889   Thumb Code   248  gt_font.o(.text)
    _gt_utf8_to_unicode                      0x0003e981   Thumb Code   124  gt_font.o(.text)
    _gt_font_get_type_group_offset_y         0x0003e9fd   Thumb Code     4  gt_font.o(.text)
    gt_font_one_char_code_len_get            0x0003ea01   Thumb Code   162  gt_font.o(.text)
    gt_encoding_table_one_char               0x0003eaa5   Thumb Code   444  gt_font.o(.text)
    gt_utf8_check_char                       0x0003ec61   Thumb Code   110  gt_font.o(.text)
    gt_gb_check_char                         0x0003ecd1   Thumb Code    98  gt_font.o(.text)
    _gt_is_style_cn_or_en                    0x0003ed35   Thumb Code   146  gt_font.o(.text)
    _gt_font_is_convertor_language           0x0003edc9   Thumb Code    18  gt_font.o(.text)
    _gt_font_is_convertor_by                 0x0003eddd   Thumb Code   114  gt_font.o(.text)
    gt_font_get_dot                          0x0003ee51   Thumb Code   380  gt_font.o(.text)
    gt_font_get_string_dot                   0x0003efcd   Thumb Code   478  gt_font.o(.text)
    gt_font_type_get                         0x0003f1ad   Thumb Code     4  gt_font.o(.text)
    gt_font_code_transform                   0x0003f1b1   Thumb Code    46  gt_font.o(.text)
    gt_font_convertor_data_get               0x0003f1e1   Thumb Code     4  gt_font.o(.text)
    gt_font_get_size_length_by_style         0x0003f1e5   Thumb Code   256  gt_font.o(.text)
    gt_font_get_string_width                 0x0003f2e5   Thumb Code    58  gt_font.o(.text)
    gt_font_get_one_word_width               0x0003f321   Thumb Code   444  gt_font.o(.text)
    gt_font_get_longest_line_substring_width 0x0003f4dd   Thumb Code   282  gt_font.o(.text)
    gt_font_get_word_width_figure_up         0x0003f5f9   Thumb Code   314  gt_font.o(.text)
    gt_project_encoding_set                  0x0003f735   Thumb Code    12  gt_font.o(.text)
    gt_font_split                            0x0003f741   Thumb Code  2604  gt_font.o(.text)
    gt_font_split_line_numb                  0x0004016d   Thumb Code   316  gt_font.o(.text)
    right_to_left_lan_get                    0x000402a9   Thumb Code   144  gt_font.o(.text)
    gt_right_to_left_handler                 0x00040339   Thumb Code  1760  gt_font.o(.text)
    gt_py_input_method_create                0x00040c85   Thumb Code     4  gt_font.o(.text)
    gt_py_input_method_push_ascii            0x00040c89   Thumb Code     2  gt_font.o(.text)
    gt_py_input_method_pop_ascii             0x00040c8d   Thumb Code     2  gt_font.o(.text)
    gt_py_input_method_get_ascii_numb        0x00040c91   Thumb Code     4  gt_font.o(.text)
    gt_py_input_method_get_chinese           0x00040c95   Thumb Code     4  gt_font.o(.text)
    gt_py_input_method_chinese_data_handler  0x00040c99   Thumb Code     2  gt_font.o(.text)
    gt_py_input_method_last_page             0x00040c9d   Thumb Code     2  gt_font.o(.text)
    gt_py_input_method_next_page             0x00040ca1   Thumb Code     2  gt_font.o(.text)
    gt_py_input_method_select_text           0x00040ca5   Thumb Code     2  gt_font.o(.text)
    gt_py_input_method_clean                 0x00040ca9   Thumb Code     2  gt_font.o(.text)
    gt_symbol_is_valid_range                 0x00040cad   Thumb Code    30  gt_symbol.o(.text)
    gt_symbol_get_mask_buf                   0x00040ccd   Thumb Code   106  gt_symbol.o(.text)
    gt_disp_drv_init                         0x00040d39   Thumb Code    12  gt_hal_disp.o(.text)
    gt_disp_drv_register                     0x00040d45   Thumb Code   200  gt_hal_disp.o(.text)
    gt_disp_get_default                      0x00040e99   Thumb Code     4  gt_hal_disp.o(.text)
    gt_disp_get_res_hor                      0x00040e9d   Thumb Code    36  gt_hal_disp.o(.text)
    gt_disp_get_res_ver                      0x00040ec1   Thumb Code    36  gt_hal_disp.o(.text)
    gt_disp_graph_buf_init                   0x00040ee5   Thumb Code    12  gt_hal_disp.o(.text)
    gt_disp_graph_get_buf_default            0x00040ef1   Thumb Code    12  gt_hal_disp.o(.text)
    gt_disp_graph_get_buf_backup             0x00040efd   Thumb Code     4  gt_hal_disp.o(.text)
    _gt_disp_refr_area_push                  0x00040f01   Thumb Code    20  gt_hal_disp.o(.text)
    _gt_disp_refr_area_pop                   0x00040f15   Thumb Code    28  gt_hal_disp.o(.text)
    _gt_disp_refr_reset_areas                0x00040f31   Thumb Code    40  gt_hal_disp.o(.text)
    _gt_disp_refr_append_area                0x00040f59   Thumb Code   200  gt_hal_disp.o(.text)
    _gt_disp_refr_check                      0x00041021   Thumb Code    16  gt_hal_disp.o(.text)
    _gt_disp_refr_get_area                   0x00041031   Thumb Code   114  gt_hal_disp.o(.text)
    _gt_disp_update_max_area                 0x000410a5   Thumb Code   132  gt_hal_disp.o(.text)
    _gt_disp_reload_max_area                 0x00041129   Thumb Code   184  gt_hal_disp.o(.text)
    _gt_disp_hided_layer_top_widgets         0x000413c9   Thumb Code   108  gt_hal_disp.o(.text)
    _gt_hal_fp_init                          0x0004145d   Thumb Code    64  gt_hal_fs.o(.text)
    gt_indev_drv_init                        0x00041501   Thumb Code    36  gt_hal_indev.o(.text)
    gt_indev_drv_register                    0x00041525   Thumb Code   112  gt_hal_indev.o(.text)
    gt_indev_set_default                     0x000415bd   Thumb Code    12  gt_hal_indev.o(.text)
    gt_indev_get_default                     0x000415c9   Thumb Code    12  gt_hal_indev.o(.text)
    gt_indev_get_dev_by_idx                  0x000415d5   Thumb Code    24  gt_hal_indev.o(.text)
    gt_indev_get_dev_count                   0x000415ed   Thumb Code    12  gt_hal_indev.o(.text)
    gt_src_init                              0x000415f9   Thumb Code   118  gt_hal_src.o(.text)
    gt_src_get_drv                           0x00041671   Thumb Code    12  gt_hal_src.o(.text)
    gt_tick_inc                              0x00041819   Thumb Code    20  gt_hal_tick.o(.text)
    gt_tick_get                              0x0004182d   Thumb Code    48  gt_hal_tick.o(.text)
    gt_tick_elapse                           0x0004185d   Thumb Code    48  gt_hal_tick.o(.text)
    gt_vf_init                               0x0004188d   Thumb Code   136  gt_hal_vf.o(.text)
    gt_vf_drv_register                       0x00041915   Thumb Code    34  gt_hal_vf.o(.text)
    gt_vf_get_drv                            0x00041939   Thumb Code    12  gt_hal_vf.o(.text)
    gt_anim_speed_to_time                    0x00041ba5   Thumb Code    30  gt_anim.o(.text)
    gt_anim_get_data                         0x00041bc5   Thumb Code    14  gt_anim.o(.text)
    gt_anim_param_init                       0x00041bd5   Thumb Code    16  gt_anim.o(.text)
    gt_anim_pos_move                         0x00041be5   Thumb Code   192  gt_anim.o(.text)
    gt_anim_init                             0x00041ca5   Thumb Code    56  gt_anim.o(.text)
    gt_anim_set_path_type                    0x00041cdd   Thumb Code    40  gt_anim.o(.text)
    gt_anim_start                            0x00041d4d   Thumb Code   340  gt_anim.o(.text)
    _gt_anim_core_init                       0x00041ef5   Thumb Code    64  gt_anim.o(.text)
    gt_anim_restart                          0x00042111   Thumb Code    22  gt_anim.o(.text)
    gt_anim_del                              0x00042129   Thumb Code   176  gt_anim.o(.text)
    gt_anim_del_by                           0x000421d9   Thumb Code   152  gt_anim.o(.text)
    gt_anim_del_all                          0x00042271   Thumb Code   152  gt_anim.o(.text)
    gt_area_is_intersect_screen              0x00042519   Thumb Code    88  gt_area.o(.text)
    gt_area_intersect_screen                 0x00042571   Thumb Code   204  gt_area.o(.text)
    gt_area_cover_screen                     0x0004263d   Thumb Code   192  gt_area.o(.text)
    gt_area_is_on                            0x000426fd   Thumb Code    66  gt_area.o(.text)
    gt_area_join                             0x00042741   Thumb Code    96  gt_area.o(.text)
    gt_area_check_legal                      0x000427a1   Thumb Code    34  gt_area.o(.text)
    gt_color_fill                            0x000427c5   Thumb Code   112  gt_color.o(.text)
    gt_color_focus                           0x00042835   Thumb Code    40  gt_color.o(.text)
    gt_color_focus_set                       0x0004285d   Thumb Code    12  gt_color.o(.text)
    _gt_gc_get_disp                          0x00042869   Thumb Code    12  gt_gc.o(.text)
    _gt_gc_set_disp                          0x00042875   Thumb Code    12  gt_gc.o(.text)
    _gt_gc_get_scr_info                      0x00042881   Thumb Code    12  gt_gc.o(.text)
    _gt_gc_get_size                          0x0004288d   Thumb Code     4  gt_gc.o(.text)
    gt_sin                                   0x00042891   Thumb Code   100  gt_math.o(.text)
    gt_cos                                   0x000428f5   Thumb Code   104  gt_math.o(.text)
    gt_square                                0x0004295d   Thumb Code    12  gt_math.o(.text)
    gt_abs                                   0x00042969   Thumb Code     8  gt_math.o(.text)
    gt_per_255                               0x00042971   Thumb Code    14  gt_math.o(.text)
    gt_map                                   0x00042981   Thumb Code    60  gt_math.o(.text)
    gt_bezier3                               0x000429bd   Thumb Code    82  gt_math.o(.text)
    gt_tlsf_check                            0x00042a11   Thumb Code   488  gt_tlsf.o(.text)
    gt_tlsf_walk_pool                        0x00042bf9   Thumb Code    72  gt_tlsf.o(.text)
    gt_tlsf_block_size                       0x00042c91   Thumb Code    16  gt_tlsf.o(.text)
    gt_tlsf_check_pool                       0x00042ca1   Thumb Code    52  gt_tlsf.o(.text)
    gt_tlsf_size                             0x00042cd5   Thumb Code     6  gt_tlsf.o(.text)
    gt_tlsf_align_size                       0x00042cdd   Thumb Code     4  gt_tlsf.o(.text)
    gt_tlsf_block_size_min                   0x00042ce1   Thumb Code     4  gt_tlsf.o(.text)
    gt_tlsf_block_size_max                   0x00042ce5   Thumb Code     6  gt_tlsf.o(.text)
    gt_tlsf_pool_overhead                    0x00042ced   Thumb Code     4  gt_tlsf.o(.text)
    gt_tlsf_alloc_overhead                   0x00042cf1   Thumb Code     4  gt_tlsf.o(.text)
    gt_tlsf_add_pool                         0x00042cf5   Thumb Code   206  gt_tlsf.o(.text)
    gt_tlsf_remove_pool                      0x00042dc5   Thumb Code   110  gt_tlsf.o(.text)
    gt_tlsf_create                           0x00042e35   Thumb Code   184  gt_tlsf.o(.text)
    gt_tlsf_create_with_pool                 0x00042f25   Thumb Code   200  gt_tlsf.o(.text)
    gt_tlsf_destroy                          0x00042fed   Thumb Code     2  gt_tlsf.o(.text)
    gt_tlsf_get_pool                         0x00042ff1   Thumb Code     6  gt_tlsf.o(.text)
    gt_tlsf_malloc                           0x00042ff9   Thumb Code    52  gt_tlsf.o(.text)
    gt_tlsf_memalign                         0x000431fd   Thumb Code   348  gt_tlsf.o(.text)
    gt_tlsf_free                             0x00043359   Thumb Code   400  gt_tlsf.o(.text)
    gt_tlsf_realloc                          0x000434e9   Thumb Code   684  gt_tlsf.o(.text)
    gt_stack_create                          0x00043795   Thumb Code   102  gt_stack.o(.text)
    gt_stack_cycle_create                    0x000437fd   Thumb Code   114  gt_stack.o(.text)
    gt_stack_push                            0x00043871   Thumb Code   154  gt_stack.o(.text)
    gt_stack_pop                             0x0004390d   Thumb Code    82  gt_stack.o(.text)
    gt_stack_peek                            0x00043961   Thumb Code    56  gt_stack.o(.text)
    gt_stack_peek_by                         0x00043999   Thumb Code    64  gt_stack.o(.text)
    gt_stack_is_empty                        0x000439d9   Thumb Code    16  gt_stack.o(.text)
    gt_stack_is_full                         0x000439e9   Thumb Code    22  gt_stack.o(.text)
    gt_stack_clear                           0x00043a01   Thumb Code    38  gt_stack.o(.text)
    gt_stack_get_depth                       0x00043a29   Thumb Code    12  gt_stack.o(.text)
    gt_stack_get_count                       0x00043a35   Thumb Code    12  gt_stack.o(.text)
    gt_stack_get_item_size                   0x00043a41   Thumb Code    10  gt_stack.o(.text)
    gt_stack_is_cycle                        0x00043a4d   Thumb Code    14  gt_stack.o(.text)
    gt_stack_search_item_from_top            0x00043a5d   Thumb Code   120  gt_stack.o(.text)
    gt_stack_search_item_from_bottom         0x00043ad5   Thumb Code   132  gt_stack.o(.text)
    gt_stack_iterator                        0x00043b59   Thumb Code   128  gt_stack.o(.text)
    gt_stack_destroy                         0x00043bd9   Thumb Code    56  gt_stack.o(.text)
    _gt_vector_create                        0x00043c11   Thumb Code    66  gt_vector.o(.text)
    _gt_vector_add_free_item_cb              0x00043c55   Thumb Code    24  gt_vector.o(.text)
    _gt_vector_add_equal_item_cb             0x00043c6d   Thumb Code    24  gt_vector.o(.text)
    _gt_vector_add_item                      0x00043c95   Thumb Code   170  gt_vector.o(.text)
    _gt_vector_replace_item                  0x00043d41   Thumb Code    92  gt_vector.o(.text)
    _gt_vector_remove_item                   0x00043d9d   Thumb Code   218  gt_vector.o(.text)
    _gt_vector_turn_next                     0x00043e79   Thumb Code    56  gt_vector.o(.text)
    _gt_vector_get_count                     0x00043eb1   Thumb Code    18  gt_vector.o(.text)
    _gt_vector_get_index                     0x00043ec5   Thumb Code    22  gt_vector.o(.text)
    _gt_vector_get_item                      0x00043edd   Thumb Code    32  gt_vector.o(.text)
    _gt_vector_free                          0x00043efd   Thumb Code   130  gt_vector.o(.text)
    _gt_vector_clear_all_items               0x00043f81   Thumb Code   118  gt_vector.o(.text)
    gt_btn_create                            0x00044229   Thumb Code   148  gt_btn.o(.text)
    gt_btn_set_color_pressed                 0x000442cd   Thumb Code    34  gt_btn.o(.text)
    gt_btn_set_color_background              0x000442f1   Thumb Code    24  gt_btn.o(.text)
    gt_btn_set_color_border                  0x00044309   Thumb Code    36  gt_btn.o(.text)
    gt_btn_set_border_width                  0x0004432d   Thumb Code    36  gt_btn.o(.text)
    gt_btn_set_text                          0x00044351   Thumb Code   166  gt_btn.o(.text)
    gt_btn_get_text                          0x000443f9   Thumb Code    20  gt_btn.o(.text)
    gt_btn_set_font_color                    0x0004440d   Thumb Code    34  gt_btn.o(.text)
    gt_btn_set_font_color_pressed            0x00044431   Thumb Code    36  gt_btn.o(.text)
    gt_btn_set_font_size                     0x00044455   Thumb Code    22  gt_btn.o(.text)
    gt_btn_set_font_gray                     0x0004446d   Thumb Code    22  gt_btn.o(.text)
    gt_btn_set_font_align                    0x00044485   Thumb Code    22  gt_btn.o(.text)
    gt_btn_set_font_family_cn                0x0004449d   Thumb Code    22  gt_btn.o(.text)
    gt_btn_set_font_family_en                0x000444b5   Thumb Code    22  gt_btn.o(.text)
    gt_btn_set_font_family_fl                0x000444cd   Thumb Code    22  gt_btn.o(.text)
    gt_btn_set_font_family_numb              0x000444e5   Thumb Code    22  gt_btn.o(.text)
    gt_btn_set_radius                        0x000444fd   Thumb Code    34  gt_btn.o(.text)
    gt_btn_add_state_content                 0x00044521   Thumb Code    90  gt_btn.o(.text)
    gt_btn_remove_state_content              0x0004457d   Thumb Code    42  gt_btn.o(.text)
    gt_btn_clear_all_state_content           0x000445a9   Thumb Code    28  gt_btn.o(.text)
    gt_btn_get_state_content_index           0x000445c5   Thumb Code    30  gt_btn.o(.text)
    gt_btn_set_font_thick_en                 0x000445e5   Thumb Code    22  gt_btn.o(.text)
    gt_btn_set_font_thick_cn                 0x000445fd   Thumb Code    22  gt_btn.o(.text)
    gt_btn_set_font_encoding                 0x00044615   Thumb Code    22  gt_btn.o(.text)
    gt_btn_set_space                         0x0004462d   Thumb Code    28  gt_btn.o(.text)
    gt_btn_set_selected                      0x00044649   Thumb Code    24  gt_btn.o(.text)
    gt_dialog_create                         0x00044885   Thumb Code   236  gt_dialog.o(.text)
    gt_dialog_create_issue                   0x00044971   Thumb Code   508  gt_dialog.o(.text)
    gt_dialog_show                           0x00044b71   Thumb Code    82  gt_dialog.o(.text)
    gt_dialog_has_showing                    0x00044bc5   Thumb Code    28  gt_dialog.o(.text)
    gt_dialog_set_border_color               0x00044c31   Thumb Code    22  gt_dialog.o(.text)
    gt_dialog_set_border_width               0x00044c49   Thumb Code    22  gt_dialog.o(.text)
    gt_dialog_set_bgcolor                    0x00044c61   Thumb Code    20  gt_dialog.o(.text)
    gt_dialog_set_border_radius              0x00044c75   Thumb Code    22  gt_dialog.o(.text)
    gt_dialog_set_outside_auto_hide          0x00044c8d   Thumb Code    34  gt_dialog.o(.text)
    gt_dialog_set_anim_time                  0x00044cb1   Thumb Code    20  gt_dialog.o(.text)
    gt_dialog_set_title_font_color           0x00044cc5   Thumb Code    34  gt_dialog.o(.text)
    gt_dialog_set_title_font_size            0x00044ce9   Thumb Code    34  gt_dialog.o(.text)
    gt_dialog_set_title_font_align           0x00044d0d   Thumb Code    34  gt_dialog.o(.text)
    gt_dialog_set_title_font_family_cn       0x00044d31   Thumb Code    34  gt_dialog.o(.text)
    gt_dialog_set_title_font_family_en       0x00044d55   Thumb Code    34  gt_dialog.o(.text)
    gt_dialog_set_title_font_family_fl       0x00044d79   Thumb Code    34  gt_dialog.o(.text)
    gt_dialog_set_title_font_thick_en        0x00044d9d   Thumb Code    34  gt_dialog.o(.text)
    gt_dialog_set_title_font_thick_cn        0x00044dc1   Thumb Code    34  gt_dialog.o(.text)
    gt_dialog_set_content_font_color         0x00044de5   Thumb Code    34  gt_dialog.o(.text)
    gt_dialog_set_content_font_size          0x00044e09   Thumb Code    34  gt_dialog.o(.text)
    gt_dialog_set_content_font_align         0x00044e2d   Thumb Code    34  gt_dialog.o(.text)
    gt_dialog_set_content_font_family_cn     0x00044e51   Thumb Code    34  gt_dialog.o(.text)
    gt_dialog_set_content_font_family_en     0x00044e75   Thumb Code    34  gt_dialog.o(.text)
    gt_dialog_set_content_font_family_fl     0x00044e99   Thumb Code    34  gt_dialog.o(.text)
    gt_dialog_set_content_font_thick_en      0x00044ebd   Thumb Code    34  gt_dialog.o(.text)
    gt_dialog_set_content_font_thick_cn      0x00044ee1   Thumb Code    34  gt_dialog.o(.text)
    gt_img_create                            0x000450b1   Thumb Code    14  gt_img.o(.text)
    gt_img_set_src                           0x000450c1   Thumb Code   136  gt_img.o(.text)
    gt_img_set_raw_data                      0x00045149   Thumb Code   142  gt_img.o(.text)
    gt_img_get_src                           0x000451d9   Thumb Code    20  gt_img.o(.text)
    gt_img_get_width                         0x000451ed   Thumb Code    50  gt_img.o(.text)
    gt_img_get_height                        0x00045221   Thumb Code    54  gt_img.o(.text)
    gt_imgbtn_create                         0x000453ed   Thumb Code    62  gt_imgbtn.o(.text)
    gt_imgbtn_style_set_selected             0x00045461   Thumb Code    52  gt_imgbtn.o(.text)
    gt_imgbtn_set_src                        0x00045495   Thumb Code   130  gt_imgbtn.o(.text)
    gt_imgbtn_set_src_press                  0x00045519   Thumb Code   110  gt_imgbtn.o(.text)
    gt_imgbtn_set_src_release                0x00045589   Thumb Code   110  gt_imgbtn.o(.text)
    gt_imgbtn_add_state_item                 0x000455f9   Thumb Code   130  gt_imgbtn.o(.text)
    gt_imgbtn_remove_state_item              0x0004567d   Thumb Code    58  gt_imgbtn.o(.text)
    gt_imgbtn_clear_all_state_item           0x000456b9   Thumb Code    28  gt_imgbtn.o(.text)
    bt_imgbtn_get_state_item_index           0x000456d5   Thumb Code    30  gt_imgbtn.o(.text)
    gt_label_create                          0x000458dd   Thumb Code    84  gt_label.o(.text)
    gt_label_set_text                        0x00045939   Thumb Code   224  gt_label.o(.text)
    gt_label_set_text_by_len                 0x00045a19   Thumb Code   280  gt_label.o(.text)
    gt_label_get_text                        0x00045b31   Thumb Code    20  gt_label.o(.text)
    gt_label_set_font_color                  0x00045b45   Thumb Code    34  gt_label.o(.text)
    gt_label_set_font_size                   0x00045b69   Thumb Code    68  gt_label.o(.text)
    gt_label_set_font_gray                   0x00045bad   Thumb Code    22  gt_label.o(.text)
    gt_label_set_font_align                  0x00045bc5   Thumb Code    36  gt_label.o(.text)
    gt_label_set_font_family_cn              0x00045be9   Thumb Code    22  gt_label.o(.text)
    gt_label_set_font_family_en              0x00045c01   Thumb Code    22  gt_label.o(.text)
    gt_label_set_font_family_fl              0x00045c19   Thumb Code    22  gt_label.o(.text)
    gt_label_set_font_thick_en               0x00045c31   Thumb Code    22  gt_label.o(.text)
    gt_label_set_font_thick_cn               0x00045c49   Thumb Code    22  gt_label.o(.text)
    gt_label_set_font_encoding               0x00045c61   Thumb Code    22  gt_label.o(.text)
    gt_label_set_font_family_numb            0x00045c79   Thumb Code    22  gt_label.o(.text)
    gt_label_set_space                       0x00045c91   Thumb Code    74  gt_label.o(.text)
    gt_label_get_font_size                   0x00045cdd   Thumb Code    22  gt_label.o(.text)
    gt_label_get_space_x                     0x00045cf5   Thumb Code    22  gt_label.o(.text)
    gt_label_get_space_y                     0x00045d0d   Thumb Code    22  gt_label.o(.text)
    gt_label_get_longest_line_substring_width 0x00045d25   Thumb Code    36  gt_label.o(.text)
    gt_label_set_single_line                 0x00045d49   Thumb Code   102  gt_label.o(.text)
    gt_label_set_omit_single_line            0x00045db1   Thumb Code    90  gt_label.o(.text)
    gt_label_set_auto_scroll_single_line     0x00045e0d   Thumb Code   292  gt_label.o(.text)
    gt_label_set_font_style                  0x00045f31   Thumb Code    52  gt_label.o(.text)
    gt_label_is_single_line                  0x00045f65   Thumb Code    26  gt_label.o(.text)
    gt_label_is_omit_single_line             0x00045f81   Thumb Code    26  gt_label.o(.text)
    gt_label_is_auto_scroll_single_line      0x00045f9d   Thumb Code    44  gt_label.o(.text)
    _gt_obj_destroy_handler_cb               0x00045fe1   Thumb Code   156  gt_obj.o(.text)
    gt_obj_create                            0x00046099   Thumb Code    28  gt_obj.o(.text)
    gt_obj_get_parent                        0x000460b5   Thumb Code    68  gt_obj.o(.text)
    gt_obj_change_parent                     0x0004610d   Thumb Code     4  gt_obj.o(.text)
    gt_obj_find_by_id                        0x00046111   Thumb Code    74  gt_obj.o(.text)
    gt_obj_register_id                       0x00046199   Thumb Code    64  gt_obj.o(.text)
    gt_obj_get_id                            0x000461ed   Thumb Code    14  gt_obj.o(.text)
    gt_obj_is_child                          0x000461fd   Thumb Code   112  gt_obj.o(.text)
    gt_obj_destroy                           0x0004627d   Thumb Code    58  gt_obj.o(.text)
    gt_screen_set_bgcolor                    0x000462b9   Thumb Code    22  gt_obj.o(.text)
    gt_screen_get_bgcolor                    0x000462d1   Thumb Code    22  gt_obj.o(.text)
    gt_obj_set_bgcolor                       0x000462e9   Thumb Code    20  gt_obj.o(.text)
    gt_obj_get_bgcolor                       0x000462fd   Thumb Code    20  gt_obj.o(.text)
    gt_obj_get_limit_bottom                  0x00046311   Thumb Code   380  gt_obj.o(.text)
    gt_obj_get_childs_max_height             0x000464a5   Thumb Code   310  gt_obj.o(.text)
    gt_obj_show_bg                           0x000465dd   Thumb Code    36  gt_obj.o(.text)
    gt_obj_is_show_bg                        0x00046601   Thumb Code    26  gt_obj.o(.text)
    gt_obj_class_create                      0x000469a5   Thumb Code   394  gt_obj_class.o(.text)
    _gt_obj_class_inherent_attr_from_parent  0x00046b31   Thumb Code    48  gt_obj_class.o(.text)
    _gt_obj_class_change_parent              0x00046b61   Thumb Code   332  gt_obj_class.o(.text)
    _gt_obj_class_destroy                    0x00046cad   Thumb Code   452  gt_obj_class.o(.text)
    _gt_obj_class_destroy_children           0x00046fa9   Thumb Code    44  gt_obj_class.o(.text)
    gt_obj_class_get_type                    0x00046fd5   Thumb Code    18  gt_obj_class.o(.text)
    gt_obj_is_type                           0x00046fe9   Thumb Code    44  gt_obj_class.o(.text)
    gt_player_create                         0x00047141   Thumb Code    70  gt_player.o(.text)
    gt_player_set_type                       0x0004720d   Thumb Code    38  gt_player.o(.text)
    gt_player_set_mode                       0x00047235   Thumb Code    44  gt_player.o(.text)
    gt_player_set_auto_play_period           0x00047261   Thumb Code   114  gt_player.o(.text)
    gt_player_remove_item                    0x000472d5   Thumb Code   152  gt_player.o(.text)
    gt_player_remove_all_items               0x00047441   Thumb Code   208  gt_player.o(.text)
    gt_player_remove_item_by_index           0x00047511   Thumb Code    20  gt_player.o(.text)
    gt_player_add_item                       0x00047525   Thumb Code   340  gt_player.o(.text)
    gt_player_set_index                      0x000476dd   Thumb Code    54  gt_player.o(.text)
    gt_player_get_index                      0x00047715   Thumb Code    24  gt_player.o(.text)
    gt_player_get_item_count                 0x0004772d   Thumb Code    20  gt_player.o(.text)
    gt_player_get_percentage                 0x00047741   Thumb Code    76  gt_player.o(.text)
    gt_player_turn_prev                      0x0004778d   Thumb Code    32  gt_player.o(.text)
    gt_player_turn_next                      0x000477ad   Thumb Code    32  gt_player.o(.text)
    gt_player_play                           0x000477cd   Thumb Code   100  gt_player.o(.text)
    gt_player_stop                           0x00047831   Thumb Code    66  gt_player.o(.text)
    gt_player_toggle                         0x00047875   Thumb Code   104  gt_player.o(.text)
    gt_player_dir_toggle                     0x000478dd   Thumb Code    46  gt_player.o(.text)
    gt_player_set_repeat_count               0x0004790d   Thumb Code    20  gt_player.o(.text)
    gt_player_dir_is_forward                 0x00047921   Thumb Code    34  gt_player.o(.text)
    gt_player_set_real_time_update           0x00047945   Thumb Code    36  gt_player.o(.text)
    gt_player_is_real_time_update            0x00047969   Thumb Code    26  gt_player.o(.text)
    gt_init_screen_home                      0x00047bc9   Thumb Code  1916  gt_init_screen_home.o(.text)
    gt_ui_init                               0x00048499   Thumb Code    36  gt_ui.o(.text)
    GT_Font_Init                             0x000484bd   Thumb Code   322  gt_gui_driver.o(.text)
    GT_Set_Chinese_Charset_Type              0x00048719   Thumb Code    12  gt_gui_driver.o(.text)
    GT_Get_Chinese_Charset_Type              0x00048725   Thumb Code    12  gt_gui_driver.o(.text)
    GT_GetChinese                            0x00048731   Thumb Code    80  gt_gui_driver.o(.text)
    UnicodeToGBK                             0x00048781   Thumb Code   172  gt_gui_driver.o(.text)
    GBKToUnicode                             0x00048885   Thumb Code   282  gt_gui_driver.o(.text)
    GT_Get_Font_Width                        0x000489a1   Thumb Code    10  gt_gui_driver.o(.text)
    GT_Get_Font_Height                       0x000489ad   Thumb Code    10  gt_gui_driver.o(.text)
    GT_Check_Is_Vec                          0x000489b9   Thumb Code     4  gt_gui_driver.o(.text)
    GT_Get_Font_Func_S                       0x000489bd   Thumb Code    44  gt_gui_driver.o(.text)
    GT_Get_Font_Type                         0x000489e9   Thumb Code    16  gt_gui_driver.o(.text)
    GT_Font_Code_Transform                   0x000489f9   Thumb Code    24  gt_gui_driver.o(.text)
    GT_Get_Font_Convertor_Data               0x00048a11   Thumb Code    24  gt_gui_driver.o(.text)
    tolower                                  0x000491cf   Thumb Code    12  tolower.o(.text)
    ___aeabi_memcpy8$move                    0x000491db   Thumb Code     0  memmovea.o(.text)
    __aeabi_memcpy                           0x000491db   Thumb Code    64  memmovea.o(.text)
    __aeabi_memcpy4                          0x000491db   Thumb Code     0  memmovea.o(.text)
    __aeabi_memmove                          0x000491db   Thumb Code     0  memmovea.o(.text)
    __aeabi_memmove4                         0x000491db   Thumb Code     0  memmovea.o(.text)
    __aeabi_memmove8                         0x000491db   Thumb Code     0  memmovea.o(.text)
    __aeabi_memset                           0x0004921b   Thumb Code    14  memseta.o(.text)
    __aeabi_memset4                          0x0004921b   Thumb Code     0  memseta.o(.text)
    __aeabi_memset8                          0x0004921b   Thumb Code     0  memseta.o(.text)
    __aeabi_memclr                           0x00049229   Thumb Code     4  memseta.o(.text)
    __aeabi_memclr4                          0x00049229   Thumb Code     0  memseta.o(.text)
    __aeabi_memclr8                          0x00049229   Thumb Code     0  memseta.o(.text)
    _memset$wrapper                          0x0004922d   Thumb Code    18  memseta.o(.text)
    strlen                                   0x0004923f   Thumb Code    14  strlen.o(.text)
    strcmp                                   0x0004924d   Thumb Code    28  strcmp.o(.text)
    memcmp                                   0x00049269   Thumb Code    26  memcmp.o(.text)
    strcpy                                   0x00049283   Thumb Code    18  strcpy.o(.text)
    __aeabi_fmul                             0x00049295   Thumb Code   100  fmul.o(.text)
    __aeabi_fdiv                             0x000492f9   Thumb Code   124  fdiv.o(.text)
    __aeabi_dadd                             0x00049375   Thumb Code   322  dadd.o(.text)
    __aeabi_dsub                             0x000494b7   Thumb Code     6  dadd.o(.text)
    __aeabi_drsub                            0x000494bd   Thumb Code     6  dadd.o(.text)
    __aeabi_dmul                             0x000494c3   Thumb Code   228  dmul.o(.text)
    __aeabi_ddiv                             0x000495a7   Thumb Code   222  ddiv.o(.text)
    __aeabi_ui2f                             0x00049685   Thumb Code    10  ffltui.o(.text)
    __aeabi_i2d                              0x0004968f   Thumb Code    34  dflti.o(.text)
    __aeabi_ui2d                             0x000496b1   Thumb Code    26  dfltui.o(.text)
    __aeabi_f2d                              0x000496cb   Thumb Code    38  f2d.o(.text)
    __aeabi_d2f                              0x000496f1   Thumb Code    56  d2f.o(.text)
    __aeabi_uidiv                            0x00049729   Thumb Code     0  uidiv.o(.text)
    __aeabi_uidivmod                         0x00049729   Thumb Code    44  uidiv.o(.text)
    __aeabi_uldivmod                         0x00049755   Thumb Code    98  uldiv.o(.text)
    __aeabi_llsl                             0x000497b7   Thumb Code    30  llshl.o(.text)
    _ll_shift_l                              0x000497b7   Thumb Code     0  llshl.o(.text)
    __aeabi_llsr                             0x000497d5   Thumb Code    32  llushr.o(.text)
    _ll_ushift_r                             0x000497d5   Thumb Code     0  llushr.o(.text)
    __aeabi_lasr                             0x000497f5   Thumb Code    36  llsshr.o(.text)
    _ll_sshift_r                             0x000497f5   Thumb Code     0  llsshr.o(.text)
    __I$use$fp                               0x00049819   Thumb Code     0  iusefp.o(.text)
    _float_round                             0x00049819   Thumb Code    18  fepilogue.o(.text)
    _float_epilogue                          0x0004982b   Thumb Code    92  fepilogue.o(.text)
    _double_round                            0x00049887   Thumb Code    30  depilogue.o(.text)
    _double_epilogue                         0x000498a5   Thumb Code   156  depilogue.o(.text)
    __aeabi_d2ulz                            0x00049941   Thumb Code    48  dfixul.o(.text)
    __aeabi_cdrcmple                         0x00049971   Thumb Code    48  cdrcmple.o(.text)
    __scatterload                            0x000499a1   Thumb Code    28  init.o(.text)
    __scatterload_rt2                        0x000499a1   Thumb Code     0  init.o(.text)
    __0printf                                0x000499c5   Thumb Code    22  printfa.o(i.__0printf)
    __1printf                                0x000499c5   Thumb Code     0  printfa.o(i.__0printf)
    __2printf                                0x000499c5   Thumb Code     0  printfa.o(i.__0printf)
    __c89printf                              0x000499c5   Thumb Code     0  printfa.o(i.__0printf)
    printf                                   0x000499c5   Thumb Code     0  printfa.o(i.__0printf)
    __0vsnprintf                             0x000499e5   Thumb Code    46  printfa.o(i.__0vsnprintf)
    __1vsnprintf                             0x000499e5   Thumb Code     0  printfa.o(i.__0vsnprintf)
    __2vsnprintf                             0x000499e5   Thumb Code     0  printfa.o(i.__0vsnprintf)
    __c89vsnprintf                           0x000499e5   Thumb Code     0  printfa.o(i.__0vsnprintf)
    vsnprintf                                0x000499e5   Thumb Code     0  printfa.o(i.__0vsnprintf)
    __scatterload_copy                       0x00049a19   Thumb Code    14  handlers.o(i.__scatterload_copy)
    __scatterload_null                       0x00049a27   Thumb Code     2  handlers.o(i.__scatterload_null)
    __scatterload_zeroinit                   0x00049a29   Thumb Code    14  handlers.o(i.__scatterload_zeroinit)
    puts                                     0x0004a301   Thumb Code    30  puts.o(i.puts)
    gt_btn_class                             0x0004bf68   Data          16  gt_btn.o(.rodata.gt_btn_class)
    gt_dialog_class                          0x0004bf78   Data          16  gt_dialog.o(.rodata.gt_dialog_class)
    gt_get_font_func                         0x0004bf88   Data          12  gt_gui_driver.o(.rodata.gt_get_font_func)
    gt_img_class                             0x0004bf94   Data          16  gt_img.o(.rodata.gt_img_class)
    gt_imgbtn_class                          0x0004bfa4   Data          16  gt_imgbtn.o(.rodata.gt_imgbtn_class)
    gt_label_class                           0x0004bfb4   Data          16  gt_label.o(.rodata.gt_label_class)
    gt_player_class                          0x0004bfe4   Data          16  gt_player.o(.rodata.gt_player_class)
    Region$$Table$$Base                      0x00053374   Number         0  anon$$obj.o(Region$$Table)
    Region$$Table$$Limit                     0x00053394   Number         0  anon$$obj.o(Region$$Table)
    __stdout                                 0x20000000   Data           4  stdout.o(.data)
    SystemCoreClock                          0x20000004   Data           4  system_swm341.o(.data..L_MergedGlobals)
    CyclesPerUs                              0x20000008   Data           4  system_swm341.o(.data..L_MergedGlobals)
    _LCD_Buffer                              0x2000004c   Data           4  bsp_lcd_rgb.o(.data._LCD_Buffer)
    _gt_global_call                          0x20000054   Data          60  gt_gc.o(.data._gt_global_call)
    screen_home                              0x20000124   Data           4  gt_init_screen_home.o(.bss..L_MergedGlobals)
    Boot_Video_Flag                          0x20000180   Data           1  dev_touch.o(.bss.Boot_Video_Flag)
    POINT_COLOR                              0x20000184   Data           4  bsp_lcd_rgb.o(.bss.POINT_COLOR)
    TP_Dev                                   0x2000018c   Data          22  dev_touch.o(.bss.TP_Dev)
    __initial_sp                             0x2000d1c8   Data           0  startup_swm341.o(STACK)



==============================================================================

Memory Map of the image

  Image Entry point : 0x000201a9

  Load Region LR_IROM1 (Base: 0x00020000, Size: 0x00033430, Max: 0x00080000, ABSOLUTE)

    Execution Region ER_IROM1 (Exec base: 0x00020000, Load base: 0x00020000, Size: 0x00033394, Max: 0x00080000, ABSOLUTE)

    Exec Addr    Load Addr    Size         Type   Attr      Idx    E Section Name        Object

    0x00020000   0x00020000   0x000001a8   Data   RO          114    RESET               startup_swm341.o
    0x000201a8   0x000201a8   0x00000000   Code   RO         1285  * .ARM.Collect$$$$00000000  mc_w.l(entry.o)
    0x000201a8   0x000201a8   0x00000004   Code   RO         1605    .ARM.Collect$$$$00000001  mc_w.l(entry2.o)
    0x000201ac   0x000201ac   0x00000004   Code   RO         1608    .ARM.Collect$$$$00000004  mc_w.l(entry5.o)
    0x000201b0   0x000201b0   0x00000000   Code   RO         1610    .ARM.Collect$$$$00000008  mc_w.l(entry7b.o)
    0x000201b0   0x000201b0   0x00000000   Code   RO         1612    .ARM.Collect$$$$0000000A  mc_w.l(entry8b.o)
    0x000201b0   0x000201b0   0x00000008   Code   RO         1613    .ARM.Collect$$$$0000000B  mc_w.l(entry9a.o)
    0x000201b8   0x000201b8   0x00000000   Code   RO         1615    .ARM.Collect$$$$0000000D  mc_w.l(entry10a.o)
    0x000201b8   0x000201b8   0x00000000   Code   RO         1617    .ARM.Collect$$$$0000000F  mc_w.l(entry11a.o)
    0x000201b8   0x000201b8   0x00000004   Code   RO         1606    .ARM.Collect$$$$00002712  mc_w.l(entry2.o)
    0x000201bc   0x000201bc   0x0000022c   Code   RO            1    .text               main.o
    0x000203e8   0x000203e8   0x000005d4   Code   RO           10    .text               bsp_lcd_rgb.o
    0x000209bc   0x000209bc   0x000005d0   Code   RO           30    .text               bsp_sfc.o
    0x00020f8c   0x00020f8c   0x000001e6   Code   RO           40    .text               bsp_uart.o
    0x00021172   0x00021172   0x00000002   PAD
    0x00021174   0x00021174   0x00000102   Code   RO           71    .text               dev_systick.o
    0x00021276   0x00021276   0x00000002   PAD
    0x00021278   0x00021278   0x0000007c   Code   RO           81    .text               dev_touch.o
    0x000212f4   0x000212f4   0x00000630   Code   RO           91    .text               gt911.o
    0x00021924   0x00021924   0x000010f6   Code   RO          102    .text               system_swm341.o
    0x00022a1a   0x00022a1a   0x00000002   PAD
    0x00022a1c   0x00022a1c   0x000000d8   Code   RO          115    .text               startup_swm341.o
    0x00022af4   0x00022af4   0x0000009e   Code   RO          189    .text               swm341_exti.o
    0x00022b92   0x00022b92   0x00000002   PAD
    0x00022b94   0x00022b94   0x0000013e   Code   RO          198    .text               swm341_flash.o
    0x00022cd2   0x00022cd2   0x00000002   PAD
    0x00022cd4   0x00022cd4   0x00000298   Code   RO          210    .text               swm341_gpio.o
    0x00022f6c   0x00022f6c   0x0000030a   Code   RO          218    .text               swm341_i2c.o
    0x00023276   0x00023276   0x00000002   PAD
    0x00023278   0x00023278   0x0000031c   Code   RO          244    .text               swm341_lcd.o
    0x00023594   0x00023594   0x0000004a   Code   RO          253    .text               swm341_port.o
    0x000235de   0x000235de   0x00000002   PAD
    0x000235e0   0x000235e0   0x00000288   Code   RO          297    .text               swm341_sdram.o
    0x00023868   0x00023868   0x000005d6   Code   RO          305    .text               swm341_sfc.o
    0x00023e3e   0x00023e3e   0x00000002   PAD
    0x00023e40   0x00023e40   0x00000b60   Code   RO          323    .text               swm341_timr.o
    0x000249a0   0x000249a0   0x00000370   Code   RO          331    .text               swm341_uart.o
    0x00024d10   0x00024d10   0x000000a0   Code   RO          361    .text               swm341_wdt.o
    0x00024db0   0x00024db0   0x00000046   Code   RO          369    .text               gt_port_disp.o
    0x00024df6   0x00024df6   0x00000002   PAD
    0x00024df8   0x00024df8   0x00000046   Code   RO          378    .text               gt_port_indev.o
    0x00024e3e   0x00024e3e   0x00000002   PAD
    0x00024e40   0x00024e40   0x0000000e   Code   RO          386    .text               gt_port_src.o
    0x00024e4e   0x00024e4e   0x00000002   PAD
    0x00024e50   0x00024e50   0x0000001e   Code   RO          394    .text               gt_port_vf.o
    0x00024e6e   0x00024e6e   0x00000002   PAD
    0x00024e70   0x00024e70   0x0000163e   Code   RO          403    .text               gt_disp.o
    0x000264ae   0x000264ae   0x00000002   PAD
    0x000264b0   0x000264b0   0x00003a24   Code   RO          414    .text               gt_draw.o
    0x00029ed4   0x00029ed4   0x00000318   Code   RO          443    .text               gt_event.o
    0x0002a1ec   0x0002a1ec   0x0000030c   Code   RO          453    .text               gt_fs.o
    0x0002a4f8   0x0002a4f8   0x00000094   Code   RO          464    .text               gt_graph_base.o
    0x0002a58c   0x0002a58c   0x00000054   Code   RO          473    .text               gt_handler.o
    0x0002a5e0   0x0002a5e0   0x000003b4   Code   RO          481    .text               gt_img_decoder.o
    0x0002a994   0x0002a994   0x00000bd6   Code   RO          491    .text               gt_indev.o
    0x0002b56a   0x0002b56a   0x00000002   PAD
    0x0002b56c   0x0002b56c   0x000001d4   Code   RO          504    .text               gt_layout.o
    0x0002b740   0x0002b740   0x00000164   Code   RO          513    .text               gt_mem.o
    0x0002b8a4   0x0002b8a4   0x0000039c   Code   RO          524    .text               gt_obj_pos.o
    0x0002bc40   0x0002bc40   0x000001e6   Code   RO          534    .text               gt_obj_scroll.o
    0x0002be26   0x0002be26   0x00000002   PAD
    0x0002be28   0x0002be28   0x00000078   Code   RO          544    .text               gt_refr.o
    0x0002bea0   0x0002bea0   0x0000067c   Code   RO          553    .text               gt_scr_stack.o
    0x0002c51c   0x0002c51c   0x00001bd4   Code   RO          563    .text               gt_style.o
    0x0002e0f0   0x0002e0f0   0x00000530   Code   RO          573    .text               gt_timer.o
    0x0002e620   0x0002e620   0x0000000e   Code   RO          584    .text               gt_extra.o
    0x0002e62e   0x0002e62e   0x00000002   PAD
    0x0002e630   0x0002e630   0x000007a0   Code   RO          591    .text               gt_draw_blend.o
    0x0002edd0   0x0002edd0   0x0000103e   Code   RO          609    .text               gt_draw_blend_with_rgb565.o
    0x0002fe0e   0x0002fe0e   0x00000002   PAD
    0x0002fe10   0x0002fe10   0x000006de   Code   RO          637    .text               gt_sjpg.o
    0x000304ee   0x000304ee   0x00000002   PAD
    0x000304f0   0x000304f0   0x00003236   Code   RO          647    .text               tjpgd.o
    0x00033726   0x00033726   0x00000002   PAD
    0x00033728   0x00033728   0x000004ec   Code   RO          659    .text               gt_png.o
    0x00033c14   0x00033c14   0x0000aba2   Code   RO          669    .text               lodepng.o
    0x0003e7b6   0x0003e7b6   0x00000002   PAD
    0x0003e7b8   0x0003e7b8   0x000024f2   Code   RO          693    .text               gt_font.o
    0x00040caa   0x00040caa   0x00000002   PAD
    0x00040cac   0x00040cac   0x0000008a   Code   RO          706    .text               gt_symbol.o
    0x00040d36   0x00040d36   0x00000002   PAD
    0x00040d38   0x00040d38   0x00000724   Code   RO          758    .text               gt_hal_disp.o
    0x0004145c   0x0004145c   0x000000a4   Code   RO          771    .text               gt_hal_fs.o
    0x00041500   0x00041500   0x000000f8   Code   RO          780    .text               gt_hal_indev.o
    0x000415f8   0x000415f8   0x00000220   Code   RO          790    .text               gt_hal_src.o
    0x00041818   0x00041818   0x00000074   Code   RO          801    .text               gt_hal_tick.o
    0x0004188c   0x0004188c   0x00000318   Code   RO          810    .text               gt_hal_vf.o
    0x00041ba4   0x00041ba4   0x00000974   Code   RO          822    .text               gt_anim.o
    0x00042518   0x00042518   0x000002aa   Code   RO          834    .text               gt_area.o
    0x000427c2   0x000427c2   0x00000002   PAD
    0x000427c4   0x000427c4   0x000000a4   Code   RO          843    .text               gt_color.o
    0x00042868   0x00042868   0x00000028   Code   RO          853    .text               gt_gc.o
    0x00042890   0x00042890   0x0000017e   Code   RO          862    .text               gt_math.o
    0x00042a0e   0x00042a0e   0x00000002   PAD
    0x00042a10   0x00042a10   0x00000d84   Code   RO          873    .text               gt_tlsf.o
    0x00043794   0x00043794   0x0000047c   Code   RO          893    .text               gt_stack.o
    0x00043c10   0x00043c10   0x000003e6   Code   RO          904    .text               gt_vector.o
    0x00043ff6   0x00043ff6   0x00000002   PAD
    0x00043ff8   0x00043ff8   0x000006dc   Code   RO          914    .text               gt_btn.o
    0x000446d4   0x000446d4   0x00000884   Code   RO          971    .text               gt_dialog.o
    0x00044f58   0x00044f58   0x000002fe   Code   RO         1002    .text               gt_img.o
    0x00045256   0x00045256   0x00000002   PAD
    0x00045258   0x00045258   0x0000049a   Code   RO         1012    .text               gt_imgbtn.o
    0x000456f2   0x000456f2   0x00000002   PAD
    0x000456f4   0x000456f4   0x000008ea   Code   RO         1071    .text               gt_label.o
    0x00045fde   0x00045fde   0x00000002   PAD
    0x00045fe0   0x00045fe0   0x000009c4   Code   RO         1101    .text               gt_obj.o
    0x000469a4   0x000469a4   0x00000670   Code   RO         1113    .text               gt_obj_class.o
    0x00047014   0x00047014   0x00000bb2   Code   RO         1132    .text               gt_player.o
    0x00047bc6   0x00047bc6   0x00000002   PAD
    0x00047bc8   0x00047bc8   0x000008ce   Code   RO         1248    .text               gt_init_screen_home.o
    0x00048496   0x00048496   0x00000002   PAD
    0x00048498   0x00048498   0x00000024   Code   RO         1258    .text               gt_ui.o
    0x000484bc   0x000484bc   0x00000d12   Code   RO         1266    .text               gt_gui_driver.lib(gt_gui_driver.o)
    0x000491ce   0x000491ce   0x0000000c   Code   RO         1292    .text               mc_w.l(tolower.o)
    0x000491da   0x000491da   0x00000040   Code   RO         1296    .text               mc_w.l(memmovea.o)
    0x0004921a   0x0004921a   0x00000024   Code   RO         1298    .text               mc_w.l(memseta.o)
    0x0004923e   0x0004923e   0x0000000e   Code   RO         1300    .text               mc_w.l(strlen.o)
    0x0004924c   0x0004924c   0x0000001c   Code   RO         1302    .text               mc_w.l(strcmp.o)
    0x00049268   0x00049268   0x0000001a   Code   RO         1304    .text               mc_w.l(memcmp.o)
    0x00049282   0x00049282   0x00000012   Code   RO         1306    .text               mc_w.l(strcpy.o)
    0x00049294   0x00049294   0x00000064   Code   RO         1573    .text               mf_w.l(fmul.o)
    0x000492f8   0x000492f8   0x0000007c   Code   RO         1575    .text               mf_w.l(fdiv.o)
    0x00049374   0x00049374   0x0000014e   Code   RO         1577    .text               mf_w.l(dadd.o)
    0x000494c2   0x000494c2   0x000000e4   Code   RO         1579    .text               mf_w.l(dmul.o)
    0x000495a6   0x000495a6   0x000000de   Code   RO         1581    .text               mf_w.l(ddiv.o)
    0x00049684   0x00049684   0x0000000a   Code   RO         1591    .text               mf_w.l(ffltui.o)
    0x0004968e   0x0004968e   0x00000022   Code   RO         1593    .text               mf_w.l(dflti.o)
    0x000496b0   0x000496b0   0x0000001a   Code   RO         1595    .text               mf_w.l(dfltui.o)
    0x000496ca   0x000496ca   0x00000026   Code   RO         1601    .text               mf_w.l(f2d.o)
    0x000496f0   0x000496f0   0x00000038   Code   RO         1603    .text               mf_w.l(d2f.o)
    0x00049728   0x00049728   0x0000002c   Code   RO         1629    .text               mc_w.l(uidiv.o)
    0x00049754   0x00049754   0x00000062   Code   RO         1631    .text               mc_w.l(uldiv.o)
    0x000497b6   0x000497b6   0x0000001e   Code   RO         1633    .text               mc_w.l(llshl.o)
    0x000497d4   0x000497d4   0x00000020   Code   RO         1635    .text               mc_w.l(llushr.o)
    0x000497f4   0x000497f4   0x00000024   Code   RO         1637    .text               mc_w.l(llsshr.o)
    0x00049818   0x00049818   0x00000000   Code   RO         1639    .text               mc_w.l(iusefp.o)
    0x00049818   0x00049818   0x0000006e   Code   RO         1640    .text               mf_w.l(fepilogue.o)
    0x00049886   0x00049886   0x000000ba   Code   RO         1642    .text               mf_w.l(depilogue.o)
    0x00049940   0x00049940   0x00000030   Code   RO         1644    .text               mf_w.l(dfixul.o)
    0x00049970   0x00049970   0x00000030   Code   RO         1646    .text               mf_w.l(cdrcmple.o)
    0x000499a0   0x000499a0   0x00000024   Code   RO         1648    .text               mc_w.l(init.o)
    0x000499c4   0x000499c4   0x00000020   Code   RO         1545    i.__0printf         mc_w.l(printfa.o)
    0x000499e4   0x000499e4   0x00000034   Code   RO         1550    i.__0vsnprintf      mc_w.l(printfa.o)
    0x00049a18   0x00049a18   0x0000000e   Code   RO         1652    i.__scatterload_copy  mc_w.l(handlers.o)
    0x00049a26   0x00049a26   0x00000002   Code   RO         1653    i.__scatterload_null  mc_w.l(handlers.o)
    0x00049a28   0x00049a28   0x0000000e   Code   RO         1654    i.__scatterload_zeroinit  mc_w.l(handlers.o)
    0x00049a36   0x00049a36   0x00000002   PAD
    0x00049a38   0x00049a38   0x00000184   Code   RO         1552    i._fp_digits        mc_w.l(printfa.o)
    0x00049bbc   0x00049bbc   0x000006dc   Code   RO         1553    i._printf_core      mc_w.l(printfa.o)
    0x0004a298   0x0004a298   0x00000024   Code   RO         1554    i._printf_post_padding  mc_w.l(printfa.o)
    0x0004a2bc   0x0004a2bc   0x0000002e   Code   RO         1555    i._printf_pre_padding  mc_w.l(printfa.o)
    0x0004a2ea   0x0004a2ea   0x00000016   Code   RO         1556    i._snputc           mc_w.l(printfa.o)
    0x0004a300   0x0004a300   0x00000024   Code   RO         1288    i.puts              mc_w.l(puts.o)
    0x0004a324   0x0004a324   0x00000014   Data   RO          825    .rodata..Lswitch.table.gt_anim_set_path_type  gt_anim.o
    0x0004a338   0x0004a338   0x000001d0   Data   RO          685    .rodata..Lswitch.table.lodepng_error_text  lodepng.o
    0x0004a508   0x0004a508   0x0000001c   Data   RO          680    .rodata.ADAM7_DX    lodepng.o
    0x0004a524   0x0004a524   0x0000001c   Data   RO          682    .rodata.ADAM7_DY    lodepng.o
    0x0004a540   0x0004a540   0x0000001c   Data   RO          681    .rodata.ADAM7_IX    lodepng.o
    0x0004a55c   0x0004a55c   0x0000001c   Data   RO          683    .rodata.ADAM7_IY    lodepng.o
    0x0004a578   0x0004a578   0x0000004c   Data   RO          679    .rodata.CLCL_ORDER  lodepng.o
    0x0004a5c4   0x0004a5c4   0x00000400   Data   RO          651    .rodata.Clip8       tjpgd.o
    0x0004a9c4   0x0004a9c4   0x00000078   Data   RO          677    .rodata.DISTANCEBASE  lodepng.o
    0x0004aa3c   0x0004aa3c   0x00000078   Data   RO          678    .rodata.DISTANCEEXTRA  lodepng.o
    0x0004aab4   0x0004aab4   0x00000080   Data   RO          650    .rodata.Ipsf        tjpgd.o
    0x0004ab34   0x0004ab34   0x00000074   Data   RO          675    .rodata.LENGTHBASE  lodepng.o
    0x0004aba8   0x0004aba8   0x00000074   Data   RO          676    .rodata.LENGTHEXTRA  lodepng.o
    0x0004ac1c   0x0004ac1c   0x00000040   Data   RO          649    .rodata.Zig         tjpgd.o
    0x0004ac5c   0x0004ac5c   0x00000be0   Data   RO          698    .rodata._ascii_16   gt_font.o
    0x0004b83c   0x0004b83c   0x000000b6   Data   RO          864    .rodata._gt_sin_90_table  gt_math.o
    0x0004b8f2   0x0004b8f2   0x00000002   PAD
    0x0004b8f4   0x0004b8f4   0x00000400   Data   RO          865    .rodata._gt_tab_per_255  gt_math.o
    0x0004bcf4   0x0004bcf4   0x000001ea   Data   RO          697    .rodata._latin_16x16_width  gt_font.o
    0x0004bede   0x0004bede   0x00000002   PAD
    0x0004bee0   0x0004bee0   0x00000014   Data   RO          388    .rodata._src_icon_sys  gt_port_src.o
    0x0004bef4   0x0004bef4   0x00000003   Data   RO          434    .rodata._utf8_dots  gt_draw.o
    0x0004bef7   0x0004bef7   0x00000009   Data   RO          435    .rodata._utf8_full_stops  gt_draw.o
    0x0004bf00   0x0004bf00   0x00000010   Data   RO          494    .rodata.cst16       gt_indev.o
    0x0004bf10   0x0004bf10   0x00000020   Data   RO          406    .rodata.cst32       gt_disp.o
    0x0004bf30   0x0004bf30   0x00000020   Data   RO          684    .rodata.cst32       lodepng.o
    0x0004bf50   0x0004bf50   0x00000004   Data   RO          456    .rodata.cst4        gt_fs.o
    0x0004bf54   0x0004bf54   0x00000008   Data   RO          526    .rodata.cst8        gt_obj_pos.o
    0x0004bf5c   0x0004bf5c   0x00000004   PAD
    0x0004bf60   0x0004bf60   0x00000008   Data   RO          896    .rodata.cst8        gt_stack.o
    0x0004bf68   0x0004bf68   0x00000010   Data   RO          916    .rodata.gt_btn_class  gt_btn.o
    0x0004bf78   0x0004bf78   0x00000010   Data   RO          973    .rodata.gt_dialog_class  gt_dialog.o
    0x0004bf88   0x0004bf88   0x0000000c   Data   RO         1272    .rodata.gt_get_font_func  gt_gui_driver.lib(gt_gui_driver.o)
    0x0004bf94   0x0004bf94   0x00000010   Data   RO         1004    .rodata.gt_img_class  gt_img.o
    0x0004bfa4   0x0004bfa4   0x00000010   Data   RO         1014    .rodata.gt_imgbtn_class  gt_imgbtn.o
    0x0004bfb4   0x0004bfb4   0x00000010   Data   RO         1073    .rodata.gt_label_class  gt_label.o
    0x0004bfc4   0x0004bfc4   0x00000010   Data   RO          762    .rodata.gt_layer_top_class  gt_hal_disp.o
    0x0004bfd4   0x0004bfd4   0x00000010   Data   RO         1104    .rodata.gt_obj_class  gt_obj.o
    0x0004bfe4   0x0004bfe4   0x00000010   Data   RO         1134    .rodata.gt_player_class  gt_player.o
    0x0004bff4   0x0004bff4   0x00000008   Data   RO         1260    .rodata.gt_scr_list  gt_ui.o
    0x0004bffc   0x0004bffc   0x00000010   Data   RO         1105    .rodata.gt_screen_class  gt_obj.o
    0x0004c00c   0x0004c00c   0x00000230   Data   RO         1270    .rodata.gtuid       gt_gui_driver.lib(gt_gui_driver.o)
    0x0004c23c   0x0004c23c   0x00000400   Data   RO          674    .rodata.lodepng_crc32_table  lodepng.o
    0x0004c63c   0x0004c63c   0x0000000c   Data   RO          418    .rodata.r_1         gt_draw.o
    0x0004c648   0x0004c648   0x00000042   Data   RO          427    .rodata.r_10        gt_draw.o
    0x0004c68a   0x0004c68a   0x00000048   Data   RO          428    .rodata.r_11        gt_draw.o
    0x0004c6d2   0x0004c6d2   0x0000004e   Data   RO          429    .rodata.r_12        gt_draw.o
    0x0004c720   0x0004c720   0x00000054   Data   RO          430    .rodata.r_13        gt_draw.o
    0x0004c774   0x0004c774   0x0000005a   Data   RO          431    .rodata.r_14        gt_draw.o
    0x0004c7ce   0x0004c7ce   0x00000060   Data   RO          432    .rodata.r_15        gt_draw.o
    0x0004c82e   0x0004c82e   0x00000066   Data   RO          433    .rodata.r_16        gt_draw.o
    0x0004c894   0x0004c894   0x00000012   Data   RO          419    .rodata.r_2         gt_draw.o
    0x0004c8a6   0x0004c8a6   0x00000018   Data   RO          420    .rodata.r_3         gt_draw.o
    0x0004c8be   0x0004c8be   0x0000001e   Data   RO          421    .rodata.r_4         gt_draw.o
    0x0004c8dc   0x0004c8dc   0x00000024   Data   RO          422    .rodata.r_5         gt_draw.o
    0x0004c900   0x0004c900   0x0000002a   Data   RO          423    .rodata.r_6         gt_draw.o
    0x0004c92a   0x0004c92a   0x00000030   Data   RO          424    .rodata.r_7         gt_draw.o
    0x0004c95a   0x0004c95a   0x00000036   Data   RO          425    .rodata.r_8         gt_draw.o
    0x0004c990   0x0004c990   0x0000003c   Data   RO          426    .rodata.r_9         gt_draw.o
    0x0004c9cc   0x0004c9cc   0x00000044   Data   RO          417    .rodata.small_radius_make  gt_draw.o
    0x0004ca10   0x0004ca10   0x00000020   Data   RO           32    .rodata.str1.1      bsp_sfc.o
    0x0004ca30   0x0004ca30   0x0000058e   Data   RO          397    .rodata.str1.1      gt_port_vf.o
    0x0004cfbe   0x0004cfbe   0x0000014c   Data   RO          405    .rodata.str1.1      gt_disp.o
    0x0004d10a   0x0004d10a   0x0000031d   Data   RO          416    .rodata.str1.1      gt_draw.o
    0x0004d427   0x0004d427   0x00000044   Data   RO          445    .rodata.str1.1      gt_event.o
    0x0004d46b   0x0004d46b   0x00000041   Data   RO          483    .rodata.str1.1      gt_img_decoder.o
    0x0004d4ac   0x0004d4ac   0x00000016   Data   RO          493    .rodata.str1.1      gt_indev.o
    0x0004d4c2   0x0004d4c2   0x0000000e   Data   RO          546    .rodata.str1.1      gt_refr.o
    0x0004d4d0   0x0004d4d0   0x0000002c   Data   RO          555    .rodata.str1.1      gt_scr_stack.o
    0x0004d4fc   0x0004d4fc   0x000000c8   Data   RO          565    .rodata.str1.1      gt_style.o
    0x0004d5c4   0x0004d5c4   0x00000022   Data   RO          575    .rodata.str1.1      gt_timer.o
    0x0004d5e6   0x0004d5e6   0x0000002f   Data   RO          639    .rodata.str1.1      gt_sjpg.o
    0x0004d615   0x0004d615   0x00000025   Data   RO          661    .rodata.str1.1      gt_png.o
    0x0004d63a   0x0004d63a   0x0000132d   Data   RO          671    .rodata.str1.1      lodepng.o
    0x0004e967   0x0004e967   0x0000003d   Data   RO          695    .rodata.str1.1      gt_font.o
    0x0004e9a4   0x0004e9a4   0x00000060   Data   RO          710    .rodata.str1.1      gt_symbol.o
    0x0004ea04   0x0004ea04   0x0000005b   Data   RO          761    .rodata.str1.1      gt_hal_disp.o
    0x0004ea5f   0x0004ea5f   0x00000023   Data   RO          793    .rodata.str1.1      gt_hal_src.o
    0x0004ea82   0x0004ea82   0x00000022   Data   RO          812    .rodata.str1.1      gt_hal_vf.o
    0x0004eaa4   0x0004eaa4   0x00000048   Data   RO          824    .rodata.str1.1      gt_anim.o
    0x0004eaec   0x0004eaec   0x00000077   Data   RO          875    .rodata.str1.1      gt_tlsf.o
    0x0004eb63   0x0004eb63   0x00000023   Data   RO          895    .rodata.str1.1      gt_stack.o
    0x0004eb86   0x0004eb86   0x00000024   Data   RO          906    .rodata.str1.1      gt_vector.o
    0x0004ebaa   0x0004ebaa   0x00000023   Data   RO          917    .rodata.str1.1      gt_btn.o
    0x0004ebcd   0x0004ebcd   0x00000023   Data   RO         1005    .rodata.str1.1      gt_img.o
    0x0004ebf0   0x0004ebf0   0x00000026   Data   RO         1015    .rodata.str1.1      gt_imgbtn.o
    0x0004ec16   0x0004ec16   0x00000025   Data   RO         1074    .rodata.str1.1      gt_label.o
    0x0004ec3b   0x0004ec3b   0x00000029   Data   RO         1115    .rodata.str1.1      gt_obj_class.o
    0x0004ec64   0x0004ec64   0x00000074   Data   RO         1135    .rodata.str1.1      gt_player.o
    0x0004ecd8   0x0004ecd8   0x00000100   Data   RO          714    .rodata.symbol_16x16_backspace  gt_symbol.o
    0x0004edd8   0x0004edd8   0x00000100   Data   RO          727    .rodata.symbol_16x16_close  gt_symbol.o
    0x0004eed8   0x0004eed8   0x00000100   Data   RO          724    .rodata.symbol_16x16_down  gt_symbol.o
    0x0004efd8   0x0004efd8   0x00000100   Data   RO          722    .rodata.symbol_16x16_keyboard  gt_symbol.o
    0x0004f0d8   0x0004f0d8   0x00000100   Data   RO          721    .rodata.symbol_16x16_left  gt_symbol.o
    0x0004f1d8   0x0004f1d8   0x00000100   Data   RO          713    .rodata.symbol_16x16_new_line  gt_symbol.o
    0x0004f2d8   0x0004f2d8   0x00000100   Data   RO          726    .rodata.symbol_16x16_ok  gt_symbol.o
    0x0004f3d8   0x0004f3d8   0x00000100   Data   RO          720    .rodata.symbol_16x16_right  gt_symbol.o
    0x0004f4d8   0x0004f4d8   0x00000100   Data   RO          725    .rodata.symbol_16x16_save  gt_symbol.o
    0x0004f5d8   0x0004f5d8   0x00000100   Data   RO          723    .rodata.symbol_16x16_up  gt_symbol.o
    0x0004f6d8   0x0004f6d8   0x00000240   Data   RO          745    .rodata.symbol_24x24_close  gt_symbol.o
    0x0004f918   0x0004f918   0x00000240   Data   RO          735    .rodata.symbol_backspace_24x24  gt_symbol.o
    0x0004fb58   0x0004fb58   0x00000100   Data   RO          716    .rodata.symbol_ch_16x16  gt_symbol.o
    0x0004fc58   0x0004fc58   0x00000240   Data   RO          737    .rodata.symbol_ch_24x24  gt_symbol.o
    0x0004fe98   0x0004fe98   0x00000100   Data   RO          715    .rodata.symbol_en_16x16  gt_symbol.o
    0x0004ff98   0x0004ff98   0x00000240   Data   RO          736    .rodata.symbol_en_24x24  gt_symbol.o
    0x000501d8   0x000501d8   0x00000240   Data   RO          743    .rodata.symbol_keyboard_24x24  gt_symbol.o
    0x00050418   0x00050418   0x00000240   Data   RO          742    .rodata.symbol_left_24x24  gt_symbol.o
    0x00050658   0x00050658   0x00000100   Data   RO          718    .rodata.symbol_lower_case_16x16  gt_symbol.o
    0x00050758   0x00050758   0x00000240   Data   RO          739    .rodata.symbol_lower_case_24x24  gt_symbol.o
    0x00050998   0x00050998   0x00000240   Data   RO          734    .rodata.symbol_new_line_24x24  gt_symbol.o
    0x00050bd8   0x00050bd8   0x00000240   Data   RO          744    .rodata.symbol_ok_24x24  gt_symbol.o
    0x00050e18   0x00050e18   0x00000240   Data   RO          741    .rodata.symbol_right_24x24  gt_symbol.o
    0x00051058   0x00051058   0x00000100   Data   RO          712    .rodata.symbol_space_16x16  gt_symbol.o
    0x00051158   0x00051158   0x00000240   Data   RO          733    .rodata.symbol_space_24x24  gt_symbol.o
    0x00051398   0x00051398   0x00000100   Data   RO          719    .rodata.symbol_upper_case_16x16  gt_symbol.o
    0x00051498   0x00051498   0x00000240   Data   RO          740    .rodata.symbol_upper_case_24x24  gt_symbol.o
    0x000516d8   0x000516d8   0x00000100   Data   RO          717    .rodata.symbol_well_number_16x16  gt_symbol.o
    0x000517d8   0x000517d8   0x00000240   Data   RO          738    .rodata.symbol_well_number_24x24  gt_symbol.o
    0x00051a18   0x00051a18   0x000000c0   Data   RO          708    .rodata.symbols_16x16  gt_symbol.o
    0x00051ad8   0x00051ad8   0x000000a8   Data   RO          709    .rodata.symbols_24x24  gt_symbol.o
    0x00051b80   0x00051b80   0x00000474   Data   RO          396    .rodata.virt_file_sys  gt_port_vf.o
    0x00051ff4   0x00051ff4   0x00000100   Data   RO          728    .rodata.voice_play_16x16_left_1  gt_symbol.o
    0x000520f4   0x000520f4   0x00000100   Data   RO          729    .rodata.voice_play_16x16_left_2  gt_symbol.o
    0x000521f4   0x000521f4   0x00000100   Data   RO          711    .rodata.voice_play_16x16_left_3  gt_symbol.o
    0x000522f4   0x000522f4   0x00000100   Data   RO          730    .rodata.voice_play_16x16_right_1  gt_symbol.o
    0x000523f4   0x000523f4   0x00000100   Data   RO          731    .rodata.voice_play_16x16_right_2  gt_symbol.o
    0x000524f4   0x000524f4   0x00000100   Data   RO          732    .rodata.voice_play_16x16_right_3  gt_symbol.o
    0x000525f4   0x000525f4   0x00000240   Data   RO          746    .rodata.voice_play_24x24_left_1  gt_symbol.o
    0x00052834   0x00052834   0x00000240   Data   RO          747    .rodata.voice_play_24x24_left_2  gt_symbol.o
    0x00052a74   0x00052a74   0x00000240   Data   RO          748    .rodata.voice_play_24x24_left_3  gt_symbol.o
    0x00052cb4   0x00052cb4   0x00000240   Data   RO          749    .rodata.voice_play_24x24_right_1  gt_symbol.o
    0x00052ef4   0x00052ef4   0x00000240   Data   RO          750    .rodata.voice_play_24x24_right_2  gt_symbol.o
    0x00053134   0x00053134   0x00000240   Data   RO          751    .rodata.voice_play_24x24_right_3  gt_symbol.o
    0x00053374   0x00053374   0x00000020   Data   RO         1651    Region$$Table       anon$$obj.o


    Execution Region RW_IRAM1 (Exec base: 0x20000000, Load base: 0x00053398, Size: 0x0000d1c8, Max: 0x00010000, ABSOLUTE)

    Exec Addr    Load Addr    Size         Type   Attr      Idx    E Section Name        Object

    0x20000000   0x00053398   0x00000004   Data   RW         1619    .data               mc_w.l(stdout.o)
    0x20000004   0x0005339c   0x00000008   Data   RW          104    .data..L_MergedGlobals  system_swm341.o
    0x2000000c   0x000533a4   0x00000040   Data   RW         1273    .data.PADDING       gt_gui_driver.lib(gt_gui_driver.o)
    0x2000004c   0x000533e4   0x00000004   Data   RW           12    .data._LCD_Buffer   bsp_lcd_rgb.o
    0x20000050   0x000533e8   0x00000004   Data   RW          845    .data._focus_color  gt_color.o
    0x20000054   0x000533ec   0x0000003c   Data   RW          855    .data._gt_global_call  gt_gc.o
    0x20000090   0x00053428   0x00000004   Data   RW          495    .data._gt_indev_handler_keypad.last_key  gt_indev.o
    0x20000094   0x0005342c   0x00000001   Data   RW          813    .data._state        gt_hal_vf.o
    0x20000095   0x0005342d   0x00000003   PAD
    0x20000098        -       0x00000015   Zero   RW           42    .bss..L_MergedGlobals  bsp_uart.o
    0x200000ad   0x0005342d   0x00000003   PAD
    0x200000b0        -       0x00000020   Zero   RW          380    .bss..L_MergedGlobals  gt_port_indev.o
    0x200000d0        -       0x00000010   Zero   RW          496    .bss..L_MergedGlobals  gt_indev.o
    0x200000e0        -       0x0000000c   Zero   RW          516    .bss..L_MergedGlobals  gt_mem.o
    0x200000ec        -       0x00000018   Zero   RW          783    .bss..L_MergedGlobals  gt_hal_indev.o
    0x20000104        -       0x00000008   Zero   RW          803    .bss..L_MergedGlobals  gt_hal_tick.o
    0x2000010c        -       0x00000008   Zero   RW          814    .bss..L_MergedGlobals  gt_hal_vf.o
    0x20000114        -       0x00000010   Zero   RW          826    .bss..L_MergedGlobals  gt_anim.o
    0x20000124        -       0x0000005c   Zero   RW         1251    .bss..L_MergedGlobals  gt_init_screen_home.o
    0x20000180        -       0x00000001   Zero   RW           83    .bss.Boot_Video_Flag  dev_touch.o
    0x20000181        -       0x00000001   Zero   RW         1269    .bss.GT_UID_MD5_FLAG  gt_gui_driver.lib(gt_gui_driver.o)
    0x20000182   0x0005342d   0x00000002   PAD
    0x20000184        -       0x00000004   Zero   RW           13    .bss.POINT_COLOR    bsp_lcd_rgb.o
    0x20000188        -       0x00000004   Zero   RW           73    .bss.Systick_Time   dev_systick.o
    0x2000018c        -       0x00000016   Zero   RW           84    .bss.TP_Dev         dev_touch.o
    0x200001a2        -       0x00000001   Zero   RW          475    .bss._gt_init_done_flag  gt_handler.o
    0x200001a3        -       0x00000001   Zero   RW          696    .bss._gt_project_encoding  gt_font.o
    0x200001a4        -       0x00000001   Zero   RW          576    .bss._gt_timer_task_ready_flag  gt_timer.o
    0x200001a5   0x0005342d   0x00000003   PAD
    0x200001a8        -       0x0000c000   Zero   RW          515    .bss._mem_pool_int  gt_mem.o
    0x2000c1a8        -       0x00000004   Zero   RW          792    .bss._self          gt_hal_src.o
    0x2000c1ac        -       0x0000000c   Zero   RW          371    .bss.drv            gt_port_disp.o
    0x2000c1b8        -       0x00000004   Zero   RW          760    .bss.graph_buf_all  gt_hal_disp.o
    0x2000c1bc        -       0x00000001   Zero   RW         1271    .bss.gt_font_chinese_encoding  gt_gui_driver.lib(gt_gui_driver.o)
    0x2000c1bd   0x0005342d   0x00000003   PAD
    0x2000c1c0        -       0x00000004   Zero   RW          782    .bss.indev          gt_hal_indev.o
    0x2000c1c4   0x0005342d   0x00000004   PAD
    0x2000c1c8        -       0x00001000   Zero   RW          112    STACK               startup_swm341.o



  Load Region LR$$.bss.ARM.__at_0x80180000 (Base: 0x80180000, Size: 0x00000000, Max: 0x000bb800, ABSOLUTE)

    Execution Region ER$$.bss.ARM.__at_0x80180000 (Exec base: 0x80180000, Load base: 0x80180000, Size: 0x000bb800, Max: 0x000bb800, ABSOLUTE, UNINIT)

    Exec Addr    Load Addr    Size         Type   Attr      Idx    E Section Name        Object

    0x80180000        -       0x000bb800   Zero   RW          372    .bss.ARM.__at_0x80180000  gt_port_disp.o


==============================================================================

Image component sizes


      Code (inc. data)   RO Data    RW Data    ZI Data      Debug   Object Name

      1492          0          0          4          4       4339   bsp_lcd_rgb.o
      1488          0         32          0          0       5951   bsp_sfc.o
       486          0          0          0         21       2968   bsp_uart.o
       258          0          0          0          4       5519   dev_systick.o
       124          0          0          0         23       4379   dev_touch.o
      1584         20          0          0          0       5735   gt911.o
      2420         84         92          0         16      19512   gt_anim.o
       682          0          0          0          0       3997   gt_area.o
      1756         26         51          0          0      19230   gt_btn.o
       164          0          0          4          0       2017   gt_color.o
      2180         26         16          0          0      24545   gt_dialog.o
      5694        314        364          0          0      27946   gt_disp.o
     14884        124       1789          0          0      52561   gt_draw.o
      1952          0          0          0          0       8600   gt_draw_blend.o
      4158          0          0          0          0      15247   gt_draw_blend_with_rgb565.o
       792        104         68          0          0       8645   gt_event.o
        14          0          0          0          0        408   gt_extra.o
      9458        192       3591          0          1      36656   gt_font.o
       780         76          4          0          0       6871   gt_fs.o
        40          0          0         60          0       7919   gt_gc.o
       148          0          0          0          0       6196   gt_graph_base.o
      1828        188        107          0          4      12972   gt_hal_disp.o
       164        100          0          0          0       2357   gt_hal_fs.o
       248         40          0          0         28       9063   gt_hal_indev.o
       544         76         35          0          4       4963   gt_hal_src.o
       116          0          0          0          8       1250   gt_hal_tick.o
       792         76         34          1          8       5880   gt_hal_vf.o
        84          0          0          0          1        864   gt_handler.o
       766         76         51          0          0      11811   gt_img.o
       948         96         65          0          0       8615   gt_img_decoder.o
      1178         24         54          0          0      14117   gt_imgbtn.o
      3030         52         38          4         16      20838   gt_indev.o
      2254        148          0          0         92       9283   gt_init_screen_home.o
      2282          8         53          0          0      20076   gt_label.o
       468         84          0          0          0       6783   gt_layout.o
       382          0       1206          0          0       2823   gt_math.o
       356         16          0          0      49164       3910   gt_mem.o
      2500        152         32          0          0      18747   gt_obj.o
      1648          0         41          0          0      12561   gt_obj_class.o
       924          0          8          0          0      10551   gt_obj_pos.o
       486         84          0          0          0       9897   gt_obj_scroll.o
      2994        100        132          0          0      22026   gt_player.o
      1260         72         37          0          0       9373   gt_png.o
        70          0          0          0     768012       1585   gt_port_disp.o
        70          0          0          0         32       1831   gt_port_indev.o
        14          0         20          0          0       1044   gt_port_src.o
        30          0       2562          0          0       1026   gt_port_vf.o
       120         16         14          0          0       6859   gt_refr.o
      1660        184         44          0          0      13629   gt_scr_stack.o
      1758         20         47          0          0      11675   gt_sjpg.o
      1148          0         43          0          0       8110   gt_stack.o
      7124        918        200          0          0      25641   gt_style.o
       138          0      17032          0          0       3325   gt_symbol.o
      1328        272         34          0          1       5458   gt_timer.o
      3460         96        119          0          0      27130   gt_tlsf.o
        36          0          8          0          0       6024   gt_ui.o
       998          0         36          0          0       4625   gt_vector.o
     43938        238       7089          0          0     149428   lodepng.o
       556         20          0          0          0       6501   main.o
       216         10        424          0       4096       4440   startup_swm341.o
       158          0          0          0          0       2453   swm341_exti.o
       318          0          0          0          0       2057   swm341_flash.o
       664          0          0          0          0       6815   swm341_gpio.o
       778          0          0          0          0       8948   swm341_i2c.o
       796          0          0          0          0       9662   swm341_lcd.o
        74          0          0          0          0       1222   swm341_port.o
       648          4          0          0          0       5928   swm341_sdram.o
      1494          0          0          0          0       6851   swm341_sfc.o
      2912          8          0          0          0      14362   swm341_timr.o
       880         22          0          0          0       9584   swm341_uart.o
       160          0          0          0          0       5829   swm341_wdt.o
      4342         16          0          8          0      10032   system_swm341.o
     12854         62       1216          0          0      30210   tjpgd.o

    ----------------------------------------------------------------------
    164608       4244      36828         84     821545     880285   Object Totals
         0          0         32          0          0          0   (incl. Generated)
        60          0          8          3         10          0   (incl. Padding)

    ----------------------------------------------------------------------

      Code (inc. data)   RO Data    RW Data    ZI Data      Debug   Library Member Name

      3346          0        572         64          2       9071   gt_gui_driver.o
         0          0          0          0          0          0   entry.o
         0          0          0          0          0          0   entry10a.o
         0          0          0          0          0          0   entry11a.o
         8          4          0          0          0          0   entry2.o
         4          0          0          0          0          0   entry5.o
         0          0          0          0          0          0   entry7b.o
         0          0          0          0          0          0   entry8b.o
         8          4          0          0          0          0   entry9a.o
        30          0          0          0          0          0   handlers.o
        36          8          0          0          0         68   init.o
         0          0          0          0          0          0   iusefp.o
        30          0          0          0          0         68   llshl.o
        36          0          0          0          0         68   llsshr.o
        32          0          0          0          0         68   llushr.o
        26          0          0          0          0         80   memcmp.o
        64          0          0          0          0         76   memmovea.o
        36          0          0          0          0        108   memseta.o
      2332         96          0          0          0        600   printfa.o
        36          6          0          0          0         80   puts.o
         0          0          0          4          0          0   stdout.o
        28          0          0          0          0         76   strcmp.o
        18          0          0          0          0         68   strcpy.o
        14          0          0          0          0         68   strlen.o
        12          0          0          0          0         68   tolower.o
        44          0          0          0          0         80   uidiv.o
        98          0          0          0          0         92   uldiv.o
        48          0          0          0          0         68   cdrcmple.o
        56          0          0          0          0         88   d2f.o
       334          0          0          0          0        148   dadd.o
       222          0          0          0          0        100   ddiv.o
       186          0          0          0          0        176   depilogue.o
        48          0          0          0          0         68   dfixul.o
        34          0          0          0          0         76   dflti.o
        26          0          0          0          0         76   dfltui.o
       228          0          0          0          0         96   dmul.o
        38          0          0          0          0         68   f2d.o
       124          0          0          0          0         88   fdiv.o
       110          0          0          0          0        168   fepilogue.o
        10          0          0          0          0         68   ffltui.o
       100          0          0          0          0         76   fmul.o

    ----------------------------------------------------------------------
      7804        118        572         68          7      12103   Library Totals
         2          0          0          0          5          0   (incl. Padding)

    ----------------------------------------------------------------------

      Code (inc. data)   RO Data    RW Data    ZI Data      Debug   Library Name

      3346          0        572         64          2       9071   gt_gui_driver.lib
      2892        118          0          4          0       1668   mc_w.l
      1564          0          0          0          0       1364   mf_w.l

    ----------------------------------------------------------------------
      7804        118        572         68          7      12103   Library Totals

    ----------------------------------------------------------------------

==============================================================================


      Code (inc. data)   RO Data    RW Data    ZI Data      Debug   

    172412       4362      37400        152     821552     889724   Grand Totals
    172412       4362      37400        152     821552     889724   ELF Image Totals
    172412       4362      37400        152          0          0   ROM Totals

==============================================================================

    Total RO  Size (Code + RO Data)               209812 ( 204.89kB)
    Total RW  Size (RW Data + ZI Data)            821704 ( 802.45kB)
    Total ROM Size (Code + RO Data + RW Data)     209964 ( 205.04kB)

==============================================================================

